(ineural_network
Neural_Network
p1
(dp2
S'output_nodes'
p3
(lp4
(inode
Node
p5
(dp6
S'weights'
p7
(lp8
F0.47688973640182286
aF-0.57423746744922766
aF0.26989904828702516
aF0.49994771090349915
aF-0.14648666590960854
aF-1.5242776173797226
aF-0.82600082171658518
aF0.88545526437605082
aF-0.46113693980696291
aF-0.24528905179667093
aF-0.17229956133629756
aF0.89269173497332011
aF-0.37373361923730403
aF0.2072803673828022
aF-1.0402272651501103
aF-0.78332780084083231
aF-0.42478596023868953
aF0.27373988627688578
aF-0.50053257079766322
aF-1.0145534764332804
aF-0.81155759553473283
aF0.87406186012038067
aF-0.60563744319365753
aF0.57406220745099534
aF-0.46916619527191611
aF-0.20719225678074135
aF-0.44332829389033557
aF-0.73240068297899963
aF-0.26789892311885921
aF-0.2224947941237215
aF0.07406220745093077
aF-1.4579320796032729
aF0.3730974834438181
aF0.47406220745092409
aF0.049594185285536545
aF-0.77056483642754781
aF-1.5035114348053331
aF-0.43233899473731779
aF0.39429613457819207
aF-0.54192844043528188
aF-0.054629598727886843
aF-0.59137295008387725
aF1.0832438396663058
aF-0.42593779254903702
aF-0.44901892157511342
aF0.68642715963561052
aF0.39713108032833644
aF0.59859084843462351
aF-0.34184930476449488
aF-1.7115326009411056
aF-0.26392391785526803
aF-0.62593779254441007
aF0.98249504866731452
aF-0.63642813888978722
aF0.20628405992200388
aF-0.48280242131455786
aF0.32092823113039637
aF0.49140868631848134
aF0.10441557570455778
aF0.43828262540246671
aF0.16723622590226289
aF-0.10992950435652112
aF-0.62593779267378336
aF0.11770932142563571
aF-0.89633125555149762
aF0.16497480731525549
aF-0.20766564217472161
aF-0.35473803190254477
aF1.2560624649971657
aF0.36952075919247923
aF0.27481711164984612
aF0.72709267180641868
aF0.40584596311263471
aF0.57406220745099534
aF-0.50030648356844831
aF-0.073118530484960503
aF-0.22561337777798673
aF0.21585786388091707
aF-1.5565167353105349
aF-0.88558137512548774
aF-0.90000000000000002
aF-0.025937792497965555
aF-0.089358495542116806
aF-0.45153971016825806
aF0.32754615060286812
aF-0.32425515515320341
aF-0.94942114987597093
aF-0.31846655234189303
aF0.58889293619491456
aF0.65621043369077003
aF0.16824261150890174
aF-0.59681455886385759
aF-0.19202514497786333
aF0.27406221228924849
aF0.38300511172865881
aF0.39992342835661826
aF-0.82593779261583333
aF-0.31671633715753594
aF0.27364607002935504
aF0.41099501118781467
aF0.28226046135768618
aF0.17406220745093801
aF-0.40813348530445304
aF-1.2787925105851692
aF-0.15756102539887945
aF-1.0021996362863654
aF-0.09868134509495903
aF0.78601473115877507
aF-0.18589567041128921
aF0.36083696276944033
aF-0.1462735720082913
aF-0.14724960652067454
aF0.82043220986798648
aF0.70000550014870133
aF0.22933141777557958
aF0.20799477156057541
aF0.46037575276501452
aF-0.72593779254900448
aF0.17406409401354941
aF-0.61903207455209541
aF0.2453746565523591
aF-1.9635139938436241
aF0.21539207616150335
aF0.23622721962903701
aF-0.7750426270908386
aF-0.36769297818140562
aF-1.320549742707722
aF-0.55626141887333658
aF0.49577390430208795
aF0.38597795721111772
aF-0.22593779324086929
aF-0.1547095335154075
aF0.12738027476379846
aF0.47406220745092409
aF0.98807275011080742
aF-0.91998089356430102
aF-0.52135178387218939
aF0.40000000000000002
aF0.30355135739007527
aF1.1030890978311849
aF-0.91870686290688919
aF-0.46722519713621719
aF0.44013371921781003
aF0.87406220745099539
aF0.8996206276335762
aF1.216035620326354
aF0.40000000000000002
aF-0.12427476280864366
aF-0.27137526664586364
aF0.099999999999989098
asS'calculated_value'
p9
I0
sS'delta'
p10
I0
sbasS'hidden_nodes'
p11
(lp12
(inode
Node
p13
(dp14
g7
(lp15
F0.24730005262626792
aF0.18999924631869916
aF0.96267623457922802
aF-1.0353903366017276
aF0.74003084160241384
aF0.56484106862684902
aF-1.147340073933683
aF-0.53803524816707604
aF1.3757637497782382
aF-0.19249554671756197
aF1.0715112628776626
aF-0.42475189677394115
aF-0.7584988877530574
aF0.45490591514535761
aF-0.84684517555621508
aF0.58438048738624726
asg9
I0
sg10
I0
sba(inode
Node
p16
(dp17
g7
(lp18
F0.21712812277939908
aF-0.89226228684465714
aF0.03547228673467203
aF-0.24887441618099565
aF-0.7317088116174929
aF-0.30183188384238735
aF-0.5942597520852797
aF-1.0705956039868905
aF-0.38170260756339325
aF0.44255360029005997
aF-0.35761755418694774
aF0.81810730080967653
aF0.33896801119197245
aF-0.12267101936571366
aF0.29636363180784131
aF-0.58235673567401869
asg9
I0
sg10
I0
sba(inode
Node
p19
(dp20
g7
(lp21
F-0.2604743787282382
aF-0.30101998696956039
aF0.7614103241011374
aF-0.98279900598413206
aF-0.15621041901658117
aF-0.81142879492729003
aF0.33376522579660645
aF-0.39441602584486302
aF-0.80153456453617544
aF-0.64819995716292644
aF0.33399516154418885
aF-0.84896068080955711
aF-0.96212709997622914
aF0.77463722920951672
aF0.083366414681579806
aF0.80761674355348034
asg9
I0
sg10
I0
sba(inode
Node
p22
(dp23
g7
(lp24
F-0.9000000034815856
aF-0.40000000937730773
aF0.89999998601363906
aF0.19999999999985441
aF-0.40000000250949502
aF-0.70000000195360534
aF-1.3838064841197787e-08
aF-0.10000000362445276
aF-0.80000000180671182
aF-1.0000000065806962
aF-1.0000000016792643
aF0.49999999384300431
aF-1.0000000069980788
aF0.59999999523729874
aF-0.40000000727100327
aF0.99999999190283451
asg9
I0
sg10
I0
sba(inode
Node
p25
(dp26
g7
(lp27
F0.54902839569971107
aF-1.076171473179486
aF-0.47714565929073344
aF-0.57721046818046196
aF1.0028092255591337
aF1.1851949075090469
aF-0.78448693492021138
aF1.0246279448046571
aF0.5937307893086472
aF-0.93835142577342134
aF-0.50591387550963796
aF0.95079240913422847
aF-0.74946949610323788
aF0.034273817635293476
aF-0.50132963907994366
aF-0.060074579822846939
asg9
I0
sg10
I0
sba(inode
Node
p28
(dp29
g7
(lp30
F-0.85877664300265832
aF0.79483271802708622
aF-0.97865155568726425
aF0.32335809240205454
aF0.76675710911830042
aF0.39359503663936724
aF-0.028877576248110059
aF0.2823739867804434
aF-0.45094294716705974
aF-0.71159158678596046
aF0.1843575855355315
aF0.57875606490359288
aF-0.81792097412608578
aF-0.40240933112260596
aF-0.69683085008361401
aF-0.13600476360244693
asg9
I0
sg10
I0
sba(inode
Node
p31
(dp32
g7
(lp33
F-0.40533728519721984
aF-0.20055551114105055
aF0.69906101148676736
aF-0.20292584476494491
aF0.59726016624419898
aF0.09676744794148405
aF0.3971178243907138
aF0.097331674986922703
aF-0.50350698175583442
aF-0.40434271273510153
aF0.19928411301450188
aF0.99987208288793283
aF-0.0017496103097348653
aF0.096941737029149447
aF-0.1025618410722004
aF0.99754109623059817
asg9
I0
sg10
I0
sba(inode
Node
p34
(dp35
g7
(lp36
F0.27998471642040357
aF0.65048331247716984
aF-0.041235171540209198
aF0.52087919612399369
aF-0.43466863775016618
aF0.81777015472841963
aF-0.69605547066870621
aF-0.81706428051742797
aF-1.0241597576588843
aF-0.085082691908511754
aF-0.1575603245579795
aF0.68062779095659542
aF0.52105096055782041
aF0.054069392282033273
aF-0.32989176257458913
aF-1.0384751743225413
asg9
I0
sg10
I0
sba(inode
Node
p37
(dp38
g7
(lp39
F0.063518752852898736
aF0.32261100737267134
aF-0.63614611447398373
aF0.6631295047518948
aF0.14724722793891939
aF-0.43857983409616258
aF-0.11470216742416951
aF0.46339884477235871
aF-0.3662403056207062
aF0.85199007746177724
aF-0.44057362931075267
aF0.01885813264660605
aF0.74827900551765958
aF0.46047730722497121
aF-0.083269050214882484
aF0.70532774349972793
asg9
I0
sg10
I0
sba(inode
Node
p40
(dp41
g7
(lp42
F0.46724197511234017
aF1.1041387893497034
aF-0.13954895206159595
aF-0.35863260390817797
aF-0.68590343337096005
aF-0.62431947847793523
aF-0.95553136410941897
aF0.68778909898203289
aF-0.23976374146103049
aF0.19252429331358856
aF-0.50352411913121364
aF-0.4811586637297407
aF0.16761495099646592
aF0.1353115894220894
aF0.60169728475114914
aF1.1864070394307895
asg9
I0
sg10
I0
sba(inode
Node
p43
(dp44
g7
(lp45
F0.080110178314059685
aF-0.71147375966499016
aF0.9662596284706817
aF0.86453171610591484
aF1.1411387019473029
aF0.51725818644607646
aF-0.93789900315509278
aF-0.72662471206775681
aF-0.47494504542572774
aF-0.51780788198149319
aF1.0577676308509867
aF0.93024079568895579
aF-0.8442836962693171
aF-0.32023481214204375
aF-0.48759474033545208
aF0.86972130427426797
asg9
I0
sg10
I0
sba(inode
Node
p46
(dp47
g7
(lp48
F0.20140811514926041
aF1.0505901136778923
aF0.7295682748168979
aF0.076459410646670625
aF1.0210880679892407
aF-0.47237027716616037
aF-0.14723096696135152
aF0.33813758554935186
aF0.67751230661901474
aF-0.788140627615736
aF0.64664392596621856
aF-0.70136971613050336
aF-0.41146462811763729
aF0.3922778878561638
aF0.77246587822162838
aF0.13862841291872646
asg9
I0
sg10
I0
sba(inode
Node
p49
(dp50
g7
(lp51
F0.21102249269002596
aF-1.0118010919957259
aF-0.10802062265668923
aF0.9041540528595966
aF-0.1336363626545734
aF-0.10706354738899043
aF-0.72409301809018078
aF-0.53477785012191381
aF-0.21664162896057612
aF-0.46302220210878148
aF-0.0089225934215046987
aF0.78426276298922915
aF-0.02486224433695294
aF0.36505310099070759
aF-0.50819091935916216
aF-0.6218354265382765
asg9
I0
sg10
I0
sba(inode
Node
p52
(dp53
g7
(lp54
F0.85884310021010801
aF0.58961915538340781
aF-0.08835780883874958
aF-0.20102993148073214
aF0.6018675529114309
aF-0.92979408656411489
aF-0.7181358526950723
aF-0.23334252737291444
aF1.0543651868065309
aF-0.23850509963071803
aF-0.60956312038004068
aF0.94736835350558801
aF0.93204900784348688
aF1.132233964622577
aF-0.72996767644299732
aF0.037428646120653948
asg9
I0
sg10
I0
sba(inode
Node
p55
(dp56
g7
(lp57
F-1.0014493736361538
aF0.86083222440579787
aF-0.51151050682360777
aF0.33835554763358239
aF0.62663253792296214
aF0.18313791591458209
aF-0.6649974707066848
aF-0.93334635336978544
aF0.61594087244163176
aF-0.87638478466032754
aF0.29650215457382095
aF-0.66217256670383207
aF-0.19387319653922042
aF-0.21319403573926771
aF1.0613972346603526
aF-0.030374886545758147
asg9
I0
sg10
I0
sba(inode
Node
p58
(dp59
g7
(lp60
F0.17496740375397477
aF-0.11876431164453755
aF0.094317624779661435
aF0.40725734802607144
aF-0.31432044714806884
aF-0.42333780155327627
aF-0.50142749739402825
aF-0.8604765932004721
aF0.3936186555415172
aF-0.60174480136370367
aF0.55991989724037405
aF0.50521229680672763
aF-0.47669394470279758
aF-1.0479226020759638
aF-1.1002122485622108
aF0.90329431793686665
asg9
I0
sg10
I0
sba(inode
Node
p61
(dp62
g7
(lp63
F-0.92914953132690981
aF0.61787619620657863
aF0.1687736963688618
aF-0.72608372271937149
aF1.2639936657519835
aF-0.028008968212701768
aF-1.3343402355061023
aF-0.78092312056617241
aF-0.55176106264222247
aF0.1331001147533056
aF1.0418958731501011
aF-0.4024327020057189
aF0.29512764087777732
aF0.37144567082045288
aF-0.4529561466454996
aF0.77619155544363494
asg9
I0
sg10
I0
sba(inode
Node
p64
(dp65
g7
(lp66
F0.90873371219122723
aF0.30319411843112426
aF0.60109772825504293
aF-0.78884635830023142
aF-0.29513858697522632
aF0.50550199071700064
aF-0.59164075928203819
aF0.40525244733244903
aF0.30495899273044857
aF-0.19284478317039822
aF0.0032943451881219817
aF-0.49650068443319995
aF-0.09651202220305917
aF0.1050058270086044
aF0.40182500691668926
aF0.50473863802477403
asg9
I0
sg10
I0
sba(inode
Node
p67
(dp68
g7
(lp69
F0.017772999199236604
aF0.20791621723190945
aF0.61757286064602313
aF-0.39882361761429641
aF-0.48842651720725944
aF0.30877852897764879
aF-0.89116164860562763
aF-0.088961259360734568
aF0.31339763487634947
aF-0.49836305234562672
aF-0.69508329249619449
aF0.20385348217004953
aF-0.59666361014479674
aF-0.99887961193276442
aF-0.4906236126218631
aF0.32010165495594173
asg9
I0
sg10
I0
sba(inode
Node
p70
(dp71
g7
(lp72
F-0.71084718435579286
aF-0.83642648651241747
aF-0.40914612955135676
aF0.064129092902435861
aF0.84204827560813067
aF-0.69206213193439237
aF-0.8597376706647496
aF-0.73091513152480114
aF-0.053688581223667042
aF-1.0816022414368434
aF-0.19918013561391668
aF0.62191579399733721
aF0.91429369916261694
aF0.44034119352735274
aF0.18036429513447561
aF0.083876482504650088
asg9
I0
sg10
I0
sba(inode
Node
p73
(dp74
g7
(lp75
F-1.193540016521502
aF-0.74374250779948603
aF-0.1460445193594021
aF0.4247590931508054
aF0.016992686914589709
aF-0.65897507103158526
aF0.28293861639426154
aF-0.84310871554813038
aF0.82154505797688071
aF-0.83747462626610925
aF-0.10722323334416133
aF0.48713490527470238
aF0.35642847834651531
aF0.74679145483330078
aF-0.67392805729637006
aF0.025313140420118972
asg9
I0
sg10
I0
sba(inode
Node
p76
(dp77
g7
(lp78
F0.20003073046619099
aF0.2000000000014403
aF0.2000175603084883
aF-0.59996926953259877
aF0.90001444332060065
aF0.70001167757768434
aF-0.89997295718918036
aF0.80001567253549122
aF-0.49998125442289226
aF0.80000614609713072
aF0.60000891183179617
aF0.50000000000005851
aF9.2191391915847695e-06
aF1.5672537806203307e-05
aF0.1000033803517263
aF0.10002519897909448
asg9
I0
sg10
I0
sba(inode
Node
p79
(dp80
g7
(lp81
F0.45193048215675335
aF-0.27325897578050573
aF-1.096096593059269
aF-0.67904740805737307
aF0.78739196718927196
aF1.0760568888738511
aF0.39767275569531751
aF-0.10250788315380327
aF-0.94883963406367067
aF0.61125353543302574
aF0.16881920239827214
aF0.043612397090543251
aF-0.82422051363184701
aF1.082180170100411
aF0.44590343024852552
aF-0.34079937948346517
asg9
I0
sg10
I0
sba(inode
Node
p82
(dp83
g7
(lp84
F0.39999999999999969
aF-1.0220988825866002e-15
aF0.10000000000000001
aF1
aF0.59999999999999998
aF1
aF0.80000000000000004
aF0.5
aF-1.3510355765162088e-16
aF0.59999999999999987
aF-0.40000000000000119
aF0.99999999999999944
aF-0.10000000000000035
aF0.19999999999999968
aF0.39999999999999958
aF-0.60000000000000053
asg9
I0
sg10
I0
sba(inode
Node
p85
(dp86
g7
(lp87
F0.83668826535353324
aF0.46230902012790359
aF-0.038513920631304474
aF0.20490228942397939
aF0.14272308785392684
aF0.93292392320860673
aF-0.55691803959774888
aF-0.86271940902353828
aF1.0169283639781843
aF-0.23323100789044965
aF0.52800626084251712
aF-0.63911568984662259
aF0.64862251987764163
aF0.029453778855769226
aF-0.84962812190821713
aF0.62027108397499486
asg9
I0
sg10
I0
sba(inode
Node
p88
(dp89
g7
(lp90
F-0.015688885553861314
aF1.3967829600695967
aF-1.0102977509218638
aF0.95593057801886383
aF0.19873746731669545
aF-0.20217004813991288
aF0.91712781115388664
aF0.20394585354679839
aF0.21652509497605374
aF-0.83707457511472327
aF-0.58602367102381414
aF-0.89388951550978124
aF0.60489200866474768
aF-0.59200820268642851
aF0.28568583017848243
aF-0.22521583101580467
asg9
I0
sg10
I0
sba(inode
Node
p91
(dp92
g7
(lp93
F0.19006328274503695
aF0.46424678138222897
aF0.65024653749264882
aF0.90766044090267561
aF1.0590307262738567
aF-0.056037157545146009
aF0.95345789051239627
aF0.038672810316980714
aF0.15386980936091105
aF0.47023639648327697
aF-0.79364461052563939
aF-0.032832351960485132
aF-0.21200890752941723
aF-0.70523141379906051
aF0.3827339344102243
aF-0.61093250066285887
asg9
I0
sg10
I0
sba(inode
Node
p94
(dp95
g7
(lp96
F0.07723206665290018
aF-0.62462666964886149
aF0.47029580508325203
aF0.27422899789613947
aF0.50913733679525197
aF-0.27948253905841708
aF0.82751394794211341
aF0.86724417639340268
aF-0.60707233851535014
aF-0.83975173915176826
aF0.031052638613871135
aF-0.67888939053885644
aF0.37876370583451696
aF-0.12525406859197927
aF0.97659674901997928
aF0.59149202437168402
asg9
I0
sg10
I0
sba(inode
Node
p97
(dp98
g7
(lp99
F-0.80412140621015304
aF1.424944402302186
aF0.11224124360063943
aF0.00087554407634444478
aF0.64149718430079805
aF-0.67259828402809452
aF-0.85963817807493725
aF-0.4122509340761531
aF-0.55803486308064332
aF-0.38831438780745736
aF0.016610978413198384
aF0.83179200872512649
aF0.35355605235215903
aF0.34773969219406087
aF0.42404019816452942
aF0.51704624119433318
asg9
I0
sg10
I0
sba(inode
Node
p100
(dp101
g7
(lp102
F-0.11154929975033297
aF0.58499104959656878
aF-0.7420381428554863
aF-0.95154252004363615
aF0.72954567387183078
aF0.22200881623093788
aF0.59344013932610795
aF0.68175794912173571
aF0.3781031601993915
aF-0.23126126123599677
aF-0.66090281410607465
aF0.84421785654352122
aF-0.90319934214364206
aF-0.43845977794160729
aF-0.57406353814531508
aF-0.95276210275844708
asg9
I0
sg10
I0
sba(inode
Node
p103
(dp104
g7
(lp105
F-0.69999999999999996
aF0.80000000000000004
aF1
aF0.29999999999999999
aF0.29999999999999999
aF0.69999999999999996
aF0.80000000000000004
aF0.20000000000000001
aF0.29999999999999999
aF-0.59999999999999998
aF0.59999999999999998
aF0.80000000000000004
aF0.10000000000000001
aF-0.40000000000000002
aF0.10000000000000001
aF0.90000000000000002
asg9
I0
sg10
I0
sba(inode
Node
p106
(dp107
g7
(lp108
F-0.48537076149793307
aF0.54388091636270741
aF0.011002385120431083
aF-0.9135327649795425
aF0.55793084085770739
aF0.37559763267845586
aF-0.8711148321286537
aF0.08831050140610662
aF-0.49079986493439176
aF0.21081529761749679
aF-0.84685668961922045
aF0.47098322802800646
aF-0.2317592878075275
aF-0.43936991191365488
aF-0.4476207418566156
aF-0.16412882530865061
asg9
I0
sg10
I0
sba(inode
Node
p109
(dp110
g7
(lp111
F-0.96579240244454811
aF0.46822378746706067
aF-0.62852687780733985
aF-0.10810010612681074
aF0.1193158296485109
aF0.60914231906504335
aF0.19867081464293551
aF0.78526155583935664
aF-0.79206839381855865
aF-0.25810374766393207
aF-0.4540436695810699
aF-0.24251270294887997
aF-0.82094931029910423
aF-0.72649235278700486
aF-0.72507793541171672
aF0.66401971058001963
asg9
I0
sg10
I0
sba(inode
Node
p112
(dp113
g7
(lp114
F0.80000000000000004
aF1
aF-0.59999999999999998
aF-0.5
aF0
aF0.29999999999999999
aF1
aF-0.10000000000000001
aF0.90000000000000002
aF0.90000000000000002
aF0.90000000000000002
aF0.40000000000000002
aF1
aF0.29999999999999999
aF-0.80000000000000004
aF0.40000000000000002
asg9
I0
sg10
I0
sba(inode
Node
p115
(dp116
g7
(lp117
F0.4620253352755902
aF0.79771161464209994
aF0.094189192280385678
aF1.1098937615744451
aF0.0087052483937021339
aF-0.86397255205303192
aF0.57243279413697579
aF-0.68886012388022089
aF-0.57928859926702547
aF0.52783407403017379
aF0.80204505581777308
aF0.26047660906362774
aF-0.51975520218899784
aF-0.76956326633333438
aF0.76299743855912772
aF-0.6475160886839032
asg9
I0
sg10
I0
sba(inode
Node
p118
(dp119
g7
(lp120
F-1.3392983385484722
aF-0.42564602406405322
aF0.44638796924873514
aF-0.59001409604067701
aF-0.19764080653179464
aF-0.70031604041234796
aF0.41673861109044674
aF-0.095196433750720316
aF0.18705663124941924
aF-0.24563767835489897
aF0.88624382793438305
aF-0.69434173366306973
aF0.21507256502525671
aF-0.19307585722753476
aF-0.2218829034335941
aF1.2612875951743641
asg9
I0
sg10
I0
sba(inode
Node
p121
(dp122
g7
(lp123
F-1.8191816801253267
aF0.96973426717698608
aF0.60662893923213901
aF0.72936027545804805
aF0.40985333671126911
aF0.60930151658310705
aF-0.88766872386509543
aF0.87610064069487459
aF-1.0024804265014091
aF-0.23392117305454393
aF-0.0041661940878641593
aF1.0498919083858955
aF0.20908854099193303
aF-0.0098435028986979378
aF-1.0339579683534539
aF-0.32218653319277146
asg9
I0
sg10
I0
sba(inode
Node
p124
(dp125
g7
(lp126
F0.08469408640715656
aF-0.082176298036028911
aF-0.5409028249551262
aF-0.93262922444863894
aF0.19675916447516728
aF0.7004264798757257
aF-0.15065780807066192
aF-0.12187531348016559
aF0.058366601413960335
aF-1.0295225134244437
aF-0.19692288597074972
aF0.46192508891455852
aF-0.71954155691244293
aF0.24653612630388194
aF-1.0620937343268921
aF-0.11035414511751962
asg9
I0
sg10
I0
sba(inode
Node
p127
(dp128
g7
(lp129
F-0.087813259140599481
aF-1.2207282383102853
aF0.7387680408695223
aF0.51037523069883894
aF0.9107776264381654
aF0.16172610358490613
aF-0.33229903538886491
aF0.54864268422661844
aF1.0080504344501677
aF-0.38177419037838006
aF-0.78239316170434825
aF-0.27755176939255782
aF0.10706087981506669
aF0.57572719996071375
aF-0.10357458008017979
aF0.33723242993378177
asg9
I0
sg10
I0
sba(inode
Node
p130
(dp131
g7
(lp132
F-0.18204341273544572
aF-0.36601787229600208
aF0.42105358910737228
aF0.42290093891627867
aF0.38345256655766602
aF-0.43848766325873956
aF-0.58792308068281773
aF-0.84710699263737177
aF0.59785021985398645
aF-0.30508317037634763
aF-0.49079248838125428
aF1.0857750297266864
aF-0.67963916185294271
aF-0.82329360718831357
aF-0.74109423256483653
aF0.55487773989711286
asg9
I0
sg10
I0
sba(inode
Node
p133
(dp134
g7
(lp135
F0.13894343060819087
aF0.71290285159793698
aF-0.38646164805034211
aF0.038819371390569159
aF-0.93362585165186474
aF-0.74048816962566266
aF-0.34176016829936767
aF0.25344041411632096
aF-0.3250722494878257
aF0.89989729386618544
aF0.13140198809737169
aF0.13454042535027486
aF-0.34262141836624505
aF-0.14963286419285651
aF-0.76661726410580922
aF-0.13629784607980269
asg9
I0
sg10
I0
sba(inode
Node
p136
(dp137
g7
(lp138
F0.64910967126428099
aF0.36420424454973577
aF0.75882095525441184
aF0.92613451494576404
aF0.36142545079204819
aF0.79800852563795155
aF-0.49649034477077658
aF0.016912535214830268
aF0.32003374919703242
aF0.095205025147868522
aF-0.51331714690748032
aF-1.0582605664357441
aF-0.70725991270600375
aF-0.61990535331458607
aF-0.029497000852387292
aF0.80601259211881504
asg9
I0
sg10
I0
sba(inode
Node
p139
(dp140
g7
(lp141
F-0.50251090128866804
aF0.33168117750189546
aF0.09016970521444008
aF0.39462354628551111
aF0.036526834057539648
aF0.091124206232824689
aF-1.2897963628203837
aF0.41669071099125771
aF0.052382044521979511
aF0.92508262343773462
aF-0.086920583421841474
aF-0.40563346632651248
aF-0.0052555080544288181
aF-0.35563384614057836
aF-0.67127981169015716
aF-0.36211391595488485
asg9
I0
sg10
I0
sba(inode
Node
p142
(dp143
g7
(lp144
F0.90000000000000002
aF-0.10000000000000001
aF-0.40000000000000002
aF0.80000000000000004
aF-0.69999999999999996
aF0.69999999999999996
aF-0.29999999999999999
aF0.90000000000000002
aF0.29999999999999999
aF0.90000000000000002
aF1
aF0.80000000000000004
aF0.20000000000000001
aF0.69999999999999996
aF-0.10000000000000001
aF0.59999999999999998
asg9
I0
sg10
I0
sba(inode
Node
p145
(dp146
g7
(lp147
F0.056901463530301455
aF0.11403870137225643
aF0.97060371964707259
aF0.81331240016227035
aF0.70391786613589202
aF-0.60160017377634811
aF-0.19857343951318179
aF0.85794296468047659
aF0.69779820345686394
aF0.0033504735052895564
aF0.46616512132222382
aF-0.8687015774748994
aF0.47142800284985964
aF-0.087785403534745135
aF-0.47142553730477044
aF-0.48467228085903469
asg9
I0
sg10
I0
sba(inode
Node
p148
(dp149
g7
(lp150
F-0.035774661995123462
aF-0.73056044241790463
aF0.91845702050186639
aF0.062174726195169776
aF0.82775579508422947
aF-0.33350900100073655
aF-0.24533679993957455
aF1.1751165944700619
aF0.92081705528603996
aF-0.83789118576330035
aF0.15959934695507932
aF0.10274820001029569
aF0.20773286618605979
aF0.29924720586882808
aF-0.17190030027825007
aF-0.13690963063955702
asg9
I0
sg10
I0
sba(inode
Node
p151
(dp152
g7
(lp153
F0.099649437644830571
aF0.69912240497113776
aF-0.27451461066810379
aF-1.1118597040345373
aF0.68966251745586127
aF0.51752228505702025
aF0.86801065101715658
aF-0.13487682988964869
aF0.26190356436824547
aF-0.13701219708170043
aF0.54420235055667365
aF0.088466459307817047
aF0.50266088444440771
aF0.89378318553315728
aF-0.64828332236277064
aF-0.66090305871103638
asg9
I0
sg10
I0
sba(inode
Node
p154
(dp155
g7
(lp156
F0.45589426339770162
aF-0.83125458353791215
aF0.37685753543504708
aF-0.92363834504988085
aF0.88777861365538036
aF-1.0934630921116117
aF-0.76797710782003548
aF0.32077274540694639
aF-0.68920550687914717
aF-0.32273684242414663
aF0.69196457544861156
aF-0.015848007830471116
aF0.26778986724340326
aF-0.56317824461819777
aF0.35554495269078318
aF-0.58938232075501351
asg9
I0
sg10
I0
sba(inode
Node
p157
(dp158
g7
(lp159
F-0.70665082607861118
aF0.7590673537621867
aF-0.46421032380751165
aF0.74100165984247846
aF0.13183867113253558
aF0.42141300342101368
aF-0.83455025081892409
aF-1.0665000846734538
aF1.0008298075709756
aF0.81936201472806525
aF0.25500378759073172
aF-0.5551116958097374
aF-0.50772042173711218
aF-0.87872953735112913
aF0.16725579581039079
aF-0.13112467083269663
asg9
I0
sg10
I0
sba(inode
Node
p160
(dp161
g7
(lp162
F-0.71979003568524436
aF0.70330657259396889
aF-1.0093185731978958
aF-0.94842492551929014
aF0.072021577459034078
aF-0.33126125345301943
aF0.72294236606803375
aF-0.50810613455588061
aF0.98621858576985477
aF-0.56751967031011574
aF0.74687960894886518
aF-0.58719117737142323
aF0.52798923483634641
aF0.15025255043634506
aF-1.1741349102590259
aF-0.69616965657610652
asg9
I0
sg10
I0
sba(inode
Node
p163
(dp164
g7
(lp165
F-0.77136750670030252
aF0.38829799510856966
aF0.17378257611769693
aF-0.72366928671089648
aF0.31232465213795108
aF-0.24688823935371954
aF0.10821981546706329
aF0.77697590099000791
aF1.0439978551763514
aF0.010964818873488677
aF-0.097591484918667579
aF-0.97653828382728014
aF-0.57848142673830183
aF1.0743972659756476
aF-1.0900631360688455
aF0.86382324749817119
asg9
I0
sg10
I0
sba(inode
Node
p166
(dp167
g7
(lp168
F-0.49999999991248767
aF0.60000000020419642
aF0.90000000000000002
aF0.20000000000000001
aF0.80000000000000004
aF0.5
aF0.7000000000145834
aF0.80000000000000004
aF0.60000000002625131
aF0.30000000004959004
aF-0.89999999970829037
aF0.10000000014294355
aF8.7516609008484094e-11
aF0.80000000007876071
aF0.70000000014001862
aF0.10000000014002652
asg9
I0
sg10
I0
sba(inode
Node
p169
(dp170
g7
(lp171
F1.2617461921836115
aF0.80783190105289215
aF-0.8039467997058144
aF0.13570019091165525
aF0.63340332357171181
aF0.27340517796422381
aF-0.095421353657063182
aF0.035459742737321373
aF-0.075562601095327586
aF0.70756967126308423
aF-0.93668197064433423
aF0.48338545700673174
aF-1.0127504969063548
aF0.89110501083323135
aF-0.56286410913262286
aF-0.21396493874725972
asg9
I0
sg10
I0
sba(inode
Node
p172
(dp173
g7
(lp174
F-1.1281769112532269
aF1.0965372997391944
aF0.48454357517914615
aF0.75796380095383142
aF-0.93681995383693561
aF-0.84388812153685455
aF-0.27720865240809117
aF0.37439563884493943
aF-0.19695349895733449
aF0.38026022395518871
aF-0.29285959703948322
aF1.2405926606916451
aF-0.32974109518342726
aF-0.034678390384563287
aF0.22256719991466306
aF0.24126228102601796
asg9
I0
sg10
I0
sba(inode
Node
p175
(dp176
g7
(lp177
F-0.1073507165211408
aF-0.70141271128768012
aF1.1338746222943439
aF-0.81142830501697083
aF0.6636068614639975
aF0.96707622771819457
aF-0.43906351893778484
aF-0.76859491196179186
aF1.2651923292954643
aF-0.35524123629448789
aF-0.74394422775381164
aF0.82935221281970894
aF-0.72370803315281029
aF-0.23445339345831678
aF0.16687929568222026
aF-0.70406366648726737
asg9
I0
sg10
I0
sba(inode
Node
p178
(dp179
g7
(lp180
F-1.1241052833379697
aF0.10466488512889584
aF1.1924913078620683
aF-1.1840188628909689
aF0.24171402113020735
aF-0.33423151728293571
aF-0.53725348094153003
aF-0.62584810428426174
aF0.7719989342920317
aF1.0078920867897163
aF-0.51732820302570137
aF-0.7889272962538072
aF-0.00011276749588606431
aF0.86797161308140491
aF-0.12347593493621078
aF-0.61175821826875509
asg9
I0
sg10
I0
sba(inode
Node
p181
(dp182
g7
(lp183
F0.30063166339273589
aF-1.075349812689024
aF-0.10418534218326359
aF0.87117809497646292
aF-0.11626882640535763
aF-0.64973092852007519
aF-1.0479764371848508
aF0.4720470327040347
aF-0.90174121526358986
aF-0.83394088621672235
aF0.20332667676837413
aF-0.85500432815158833
aF-0.41697560727359956
aF1.0635774919072787
aF0.61340984159647582
aF0.087831759759850608
asg9
I0
sg10
I0
sba(inode
Node
p184
(dp185
g7
(lp186
F-0.57550863180279044
aF-0.63939287995520022
aF0.98229207360940218
aF0.0021533841643056116
aF-0.56452433960674053
aF-0.17331924825316136
aF0.42766203113352641
aF0.52414965159916205
aF0.16375898580670042
aF0.50577000407671868
aF-0.17192749136098762
aF0.65408349758778017
aF-0.76779722243600201
aF-0.024699642912199098
aF0.37133851583185556
aF1.1493820905380587
asg9
I0
sg10
I0
sba(inode
Node
p187
(dp188
g7
(lp189
F0.78956076189229307
aF-0.31821333209389441
aF-1.2788174159924246
aF0.69019181346982661
aF0.6310709827756471
aF-0.11886134480885928
aF-0.046352166192182777
aF-0.49567270081278703
aF-0.67820845254321793
aF-0.85778082063635941
aF-0.11871770669932437
aF0.62296561520840565
aF-1.0096083032771683
aF-0.37646623722067085
aF0.6990169826994157
aF0.78972491056797578
asg9
I0
sg10
I0
sba(inode
Node
p190
(dp191
g7
(lp192
F-0.10009129374702301
aF-0.58476706842826531
aF0.34380529495672091
aF0.44735525552566457
aF-0.31256555877479919
aF1.0717943322867096
aF-0.7415231100821027
aF0.80741057236961522
aF0.51361807531846848
aF0.43443630872853156
aF0.61602915514841028
aF-1.004242256102944
aF-0.65434595741714796
aF0.1886187627781879
aF0.023844869109042578
aF0.0733011583361904
asg9
I0
sg10
I0
sba(inode
Node
p193
(dp194
g7
(lp195
F0.41851234190108355
aF-0.84525860460356295
aF0.84379396508007787
aF-0.022573887147507177
aF-0.0078580249066163947
aF-0.098479748734566816
aF0.72446776119540368
aF0.79365815017686858
aF-1.2189368105011154
aF0.053349118988294232
aF-0.32406476786505151
aF-0.71385214780787731
aF-0.51809884112159144
aF-0.99090896235340964
aF0.85393189600973929
aF-0.57252468082728292
asg9
I0
sg10
I0
sba(inode
Node
p196
(dp197
g7
(lp198
F0.67141449809118336
aF0.22483745176663239
aF0.89104146278854368
aF0.47663850657926138
aF-0.43931575342920121
aF-0.16020556943614006
aF-1.0904090373557975
aF0.56859021205904603
aF-0.57476009137487249
aF-0.67942170848575056
aF0.6330404920156133
aF0.10532848775605856
aF0.021015610168312722
aF0.17718059775651268
aF0.70196794405118945
aF-0.47504744309325397
asg9
I0
sg10
I0
sba(inode
Node
p199
(dp200
g7
(lp201
F0.99999998838768556
aF0.50000000670761457
aF-0.89999997749041605
aF-0.80000002049533059
aF0.30000000659313325
aF0.20000000197675527
aF-0.90000001550597752
aF0.39999999393819524
aF0.40000002660334583
aF0.30000000687018946
aF0.60000000911302265
aF0.8000000021140139
aF0.79999999611430539
aF-0.70000001687033286
aF0.30000001355738048
aF0.99999996526453871
asg9
I0
sg10
I0
sba(inode
Node
p202
(dp203
g7
(lp204
F0.0073293750353485981
aF0.41623553193187401
aF0.76631316349029444
aF-1.1217027051050168
aF0.45754180532322947
aF-0.51460676092371149
aF-0.41802719407975542
aF0.001895442355844993
aF-0.55721438620610664
aF0.69297922778968601
aF-0.45725525613843987
aF0.14113916087289194
aF-0.76059221582300574
aF0.65124919900166123
aF0.088024667266456427
aF-0.26368018721968506
asg9
I0
sg10
I0
sba(inode
Node
p205
(dp206
g7
(lp207
F-0.71778313958161466
aF0.18101557836093254
aF-0.39363574307423083
aF-0.86590631261968698
aF0.017996602745777544
aF0.46736552142256249
aF0.77455684909051203
aF0.25355720595449577
aF-0.81470096923899082
aF-0.56935964392350691
aF-0.13055797060278435
aF-0.0094497251262145796
aF-0.75299902764328097
aF-1.1135986050008817
aF-0.042452120400613441
aF0.80466833164921869
asg9
I0
sg10
I0
sba(inode
Node
p208
(dp209
g7
(lp210
F0.21977831276104753
aF0.50383306085006652
aF-1.1463802293025882
aF1.0372532608757838
aF-0.1505419702331095
aF-0.39609972692869694
aF-0.83184903349619188
aF0.71294019995820868
aF-0.68340835421350532
aF0.74904866004129289
aF-0.51553243763890899
aF-0.38169227723294119
aF-0.32536100344409868
aF0.13380621517001406
aF-0.22768610165642109
aF-0.52848049535607444
asg9
I0
sg10
I0
sba(inode
Node
p211
(dp212
g7
(lp213
F0.4874338394444549
aF0.56676182969318989
aF-0.56461546615640179
aF0.56257258537915622
aF-0.078687534549524332
aF1.015100318918654
aF-0.39813808706127279
aF0.024833826255761624
aF-0.89605068661562737
aF0.58111694669292491
aF-0.088417910502661706
aF0.13096123927161207
aF-0.56206435556363432
aF-0.44736672379247472
aF-0.3101981439756325
aF0.60165561201956186
asg9
I0
sg10
I0
sba(inode
Node
p214
(dp215
g7
(lp216
F0.14441679449506087
aF-0.45242639184395289
aF0.52892389714947907
aF-0.03285237256026604
aF0.59160755598583392
aF0.97869532668387138
aF0.15759550830188704
aF0.31915022019109335
aF-0.8392293662185859
aF0.32636188841043534
aF-0.22372205744078733
aF1.1166085867850788
aF0.58013339934657027
aF-0.68535032387779982
aF0.050295650668181736
aF-0.44290478415482493
asg9
I0
sg10
I0
sba(inode
Node
p217
(dp218
g7
(lp219
F0.017333625953102894
aF0.76647621033144087
aF0.27859166650578054
aF-0.034314088148752545
aF-0.49732834042810875
aF1.0275007256069322
aF0.16910063779009946
aF0.42208397202167597
aF-0.3877085970373732
aF0.038237913540826257
aF-0.92538554098728132
aF0.9801979876564294
aF0.97510480178604808
aF-0.58352048276267132
aF1.0722334992686513
aF0.18803911757009406
asg9
I0
sg10
I0
sba(inode
Node
p220
(dp221
g7
(lp222
F0.11825100761528998
aF-0.66294691680359763
aF1.0816379582599778
aF-0.7638271446204502
aF0.010009236790386433
aF0.37258120665317701
aF0.20272876946781154
aF-0.13859623050204936
aF0.72919728797317318
aF-0.025330890589557734
aF0.89804473572132415
aF0.88520128245912255
aF0.62824882418753647
aF-1.0750062447375233
aF1.0888964714490432
aF-0.81085437501348745
asg9
I0
sg10
I0
sba(inode
Node
p223
(dp224
g7
(lp225
F0.99997496500153504
aF-0.9008582249150634
aF0.69971353004963655
aF0.39999999618161364
aF0.59982642841267941
aF0.99989366492611587
aF0.099663979738196767
aF-0.90010918888413727
aF0.69985613852687256
aF0.39970438942816872
aF0.39916323084222644
aF-0.80066527678289179
aF0.59943726074467829
aF0.29953048919405378
aF0.099393956502532632
aF-0.40036124032229448
asg9
I0
sg10
I0
sba(inode
Node
p226
(dp227
g7
(lp228
F0.23439775227247991
aF0.1893768304707717
aF-0.12359417274920553
aF0.70189970627808729
aF0.20594084088346823
aF0.40453685413940749
aF-0.63459502770358012
aF-0.091234133215694013
aF0.046026643608789698
aF-0.85332744914256575
aF-0.2090107070343751
aF-0.66289691902043923
aF0.33156617438341535
aF0.030812647985220862
aF-0.96096417923803878
aF-0.86950866498123802
asg9
I0
sg10
I0
sba(inode
Node
p229
(dp230
g7
(lp231
F-0.43102502379400248
aF-0.67436172770971414
aF0.92468587367603083
aF0.58393163431745532
aF-0.37512029894387811
aF0.17218503430389007
aF-1.2509698605467912
aF0.1809797255070992
aF0.35763734798813307
aF-0.7825397126638407
aF0.84210604518243481
aF-0.41482547695782385
aF0.48203802639657845
aF0.036429688637507944
aF0.0067964905573741994
aF-0.65835439289964437
asg9
I0
sg10
I0
sba(inode
Node
p232
(dp233
g7
(lp234
F0.59999999999999998
aF1
aF-0.10000000000000001
aF-0.59999999999999998
aF0.10000000000000001
aF-0.29999999999999999
aF0.5
aF-0.10000000000000001
aF0.90000000000000002
aF0.90000000000000002
aF0.40000000000000002
aF0.5
aF0
aF0.69999999999999996
aF-0.59999999999999998
aF0.10000000000000001
asg9
I0
sg10
I0
sba(inode
Node
p235
(dp236
g7
(lp237
F-0.7999997185203267
aF0.90000068879274731
aF-0.79999963798451645
aF0.10000001927609826
aF0.10000028686798232
aF-0.99999982162969137
aF0.80000043303638435
aF-0.29999973490336868
aF0.40000037600066041
aF-0.5999998565417245
aF-0.99999982657344921
aF-0.099999580730387755
aF-0.99999966483430636
aF-0.29999975133479467
aF4.1262442490607501e-07
aF0.60000055708265165
asg9
I0
sg10
I0
sba(inode
Node
p238
(dp239
g7
(lp240
F-0.15022920658787131
aF-0.079002176246203593
aF0.66844871515950455
aF1.0506744577382721
aF-0.29452128923248561
aF0.29739501190593809
aF-0.21660099513280232
aF-0.57981894908616871
aF-0.10240375051262875
aF-0.2584750592520817
aF1.1977106107058793
aF-0.40948330082127232
aF-1.0870976011916185
aF0.10796053125230154
aF-0.32865536667328177
aF0.72867459825646042
asg9
I0
sg10
I0
sba(inode
Node
p241
(dp242
g7
(lp243
F0.55558957106328088
aF-0.52929120278919539
aF-0.080475440646065294
aF-0.59225309928067615
aF-0.41331755554943761
aF-0.66877315614880728
aF0.76848075940841476
aF-0.37336298429767678
aF-1.0853415144950305
aF-0.48700771722895614
aF0.54790487995745107
aF-0.90897672486910253
aF0.99409509950444108
aF-0.20458885881611258
aF-0.08896914199834112
aF0.42559485897908622
asg9
I0
sg10
I0
sba(inode
Node
p244
(dp245
g7
(lp246
F0.31408653854311724
aF-0.74215035154722175
aF0.16375777873779723
aF-0.95442287584046681
aF0.73792601877334274
aF0.93213969432456767
aF-0.049913612066884244
aF-0.72565707320770401
aF0.70737757770968357
aF-0.56492176125111748
aF-0.06888241040397429
aF-0.61527382352616566
aF0.54404438541038569
aF1.03517081402327
aF-0.017330354237587598
aF0.037713546749972314
asg9
I0
sg10
I0
sba(inode
Node
p247
(dp248
g7
(lp249
F-0.59783002183626865
aF0.97421112917037667
aF0.48994198235928721
aF0.0065667670938111709
aF-0.76309898877138616
aF0.28819045525080594
aF0.97007521009946129
aF0.097436901549600108
aF-1.9394215901161043
aF-0.88067833349049585
aF-0.35085492219173725
aF0.38869910633089794
aF-0.26090316542271208
aF0.35641786129816844
aF1.0567435871486039
aF-0.42266578837107399
asg9
I0
sg10
I0
sba(inode
Node
p250
(dp251
g7
(lp252
F-0.017662321668414849
aF0.18478523122443716
aF0.12246045255691718
aF0.564395695008861
aF-0.6544320099925931
aF0.9522972024872538
aF-0.9028156924464511
aF-0.012224254744873212
aF1.0694736410882828
aF0.67194440452890902
aF-0.3159530842368124
aF-0.19021470952338002
aF0.39433579179752759
aF1.202197344425793
aF-0.013081506393780803
aF-0.48672041806683913
asg9
I0
sg10
I0
sba(inode
Node
p253
(dp254
g7
(lp255
F-0.40000000000000002
aF-0.59999999999999998
aF0.20000000000000001
aF-1
aF-0.69999999999999996
aF-0.80000000000000004
aF0.29999999999999999
aF-0.40000000000000002
aF-0.10000000000000001
aF0.20000000000000001
aF-0.5
aF1.445950631473138e-33
aF0.90000000000000002
aF-0.20000000000000001
aF-0.90000000000000002
aF-0.59999999999999998
asg9
I0
sg10
I0
sba(inode
Node
p256
(dp257
g7
(lp258
F0.80000000000003868
aF0.50000000008811751
aF-0.2999999999470746
aF0
aF1.1430179868584566e-11
aF1.5826255976185928e-11
aF-0.099999999963072489
aF-0.099999999973623341
aF0.9000000000114653
aF1.000000000042204
aF0.60000000002468634
aF-0.79999999991188253
aF0.1000000000670007
aF-0.099999999957678984
aF-0.099999999911843732
aF1.0000000000000513
asg9
I0
sg10
I0
sba(inode
Node
p259
(dp260
g7
(lp261
F0.042407207960350558
aF0.54245146311760262
aF-1.0394863014210336
aF-0.99479250141800402
aF-0.19882639488448051
aF0.55627020370987068
aF0.69550452236038207
aF1.0523713787129345
aF0.45952932069085933
aF0.23067051400626706
aF-0.49347312504482616
aF0.26016631002277751
aF-0.082629203293562423
aF-0.80377761413642645
aF0.2229440600073879
aF0.21930577416303265
asg9
I0
sg10
I0
sba(inode
Node
p262
(dp263
g7
(lp264
F0.93818011780976807
aF-0.96249340605936118
aF0.74760456853068757
aF0.64714845840591695
aF-0.49875144038309321
aF-0.11793490774487703
aF-0.1119743371172702
aF-0.46915874951575898
aF-0.70997426332097013
aF-0.68618050371715944
aF0.93492316623163418
aF-0.98321458166202447
aF-0.28153047082220362
aF-0.6428222181734593
aF-0.060525044671821931
aF-0.70699877651803023
asg9
I0
sg10
I0
sba(inode
Node
p265
(dp266
g7
(lp267
F0.30315498332348484
aF0.76121449924814255
aF0.17680127165232984
aF-0.55581622364798966
aF0.94023780410430868
aF0.069930863894915443
aF-0.36041919501655961
aF-1.2011248335531921
aF0.54160542600742023
aF-0.64965622102401399
aF-0.32536455272815762
aF-0.88653574921445144
aF-0.81683219317790223
aF0.48479199544412027
aF-1.0217888743115391
aF0.74023579532874895
asg9
I0
sg10
I0
sba(inode
Node
p268
(dp269
g7
(lp270
F-1.1508388633542441
aF0.21452302425047723
aF0.11426946602438462
aF-0.95964865339567862
aF-0.36182088759613962
aF-0.60608402692115704
aF-0.0020351926419284938
aF-0.20351448874437708
aF0.045452271003814992
aF0.55486373272960166
aF-0.74431756090391843
aF0.90142921710452151
aF-0.21351187596155957
aF-0.77107982205091397
aF1.0692697010120422
aF0.37742490765655712
asg9
I0
sg10
I0
sba(inode
Node
p271
(dp272
g7
(lp273
F0.39177497013250989
aF0.66594423220778931
aF-0.81384690982454577
aF0.72190531537033853
aF-0.42946276085559232
aF0.60577240046151792
aF-1.0029692312882295
aF-0.89052927050530761
aF-0.50461549227963964
aF0.3879466625603204
aF0.0025594220326837849
aF-0.55217982462215698
aF0.098158462145008951
aF0.26514658375428696
aF-0.80202269671937887
aF-0.48962563627684214
asg9
I0
sg10
I0
sba(inode
Node
p274
(dp275
g7
(lp276
F0.53653337221028696
aF-0.52470711500217049
aF1.0755588960104381
aF-0.52622700059033067
aF0.50483300001073794
aF0.72057848771802158
aF0.57484491341071475
aF0.60430625585890163
aF-0.26730702908113951
aF-0.55183778686077023
aF-0.83670756746752384
aF0.28645579677748162
aF-0.55793380023448425
aF-0.52298367525431011
aF-0.94891890482467289
aF-0.35277191461056528
asg9
I0
sg10
I0
sba(inode
Node
p277
(dp278
g7
(lp279
F0.83863584340075359
aF0.38269995012095354
aF-0.024461524188803922
aF-0.87085541345524242
aF0.058768519110534483
aF-0.27430272367511499
aF0.63653061596339267
aF0.71032911611463923
aF-0.04719406640324935
aF0.21703524167225333
aF0.85493808551386774
aF0.12434798126159743
aF0.64697923757347064
aF-0.32981879370614264
aF-0.062111957364150185
aF-1.0438163608125637
asg9
I0
sg10
I0
sba(inode
Node
p280
(dp281
g7
(lp282
F1.0927095124269073
aF0.074980925280205543
aF0.4038905278461461
aF-0.36020743327835913
aF0.76016695707281456
aF0.4019588651201137
aF-0.65476552660279141
aF0.64116988675429443
aF-0.57085904422702316
aF0.56591883966180767
aF-0.90128577005533284
aF-0.62454825744274145
aF0.68062539300441594
aF-0.82521957989105865
aF-0.17605681352852032
aF-0.28885319502391443
asg9
I0
sg10
I0
sba(inode
Node
p283
(dp284
g7
(lp285
F-0.93590912699028761
aF0.12393299779226467
aF0.82086890942839241
aF-0.59421999457342811
aF-0.92454588995345477
aF1.0016074942486872
aF1.0975380071150393
aF1.0252001445426628
aF0.97938484603370068
aF-0.18150597243541916
aF0.19478082457361368
aF0.13424769316772203
aF0.79529111772161909
aF-0.40800171435671639
aF0.078076176227358823
aF0.088120407053915287
asg9
I0
sg10
I0
sba(inode
Node
p286
(dp287
g7
(lp288
F0.34411211596733821
aF0.88288929961498563
aF-0.41329321183922091
aF0.25396118566202652
aF-0.26357729373450983
aF-0.62248673884388084
aF0.35494082889125145
aF-0.31747889790634531
aF0.69374209459819391
aF-0.45728072804103248
aF0.94363396322556359
aF0.61007556593426504
aF-0.37304972539807979
aF0.35843178802251546
aF0.22023504201323316
aF0.94811513926749957
asg9
I0
sg10
I0
sba(inode
Node
p289
(dp290
g7
(lp291
F-0.50611608206760839
aF-0.6936323016260737
aF0.89397335854303051
aF-0.82923049285669659
aF0.77038987658168756
aF-0.42850242701737301
aF1.0242028993386423
aF-0.11578691744007348
aF0.61638967273909773
aF-0.17110963514317465
aF-0.92351170767802881
aF-0.3149570293554706
aF0.76830015990709066
aF-0.17977252337161828
aF0.10254938971843004
aF-0.82659599774906767
asg9
I0
sg10
I0
sba(inode
Node
p292
(dp293
g7
(lp294
F0.39999992497658277
aF0.29999994401114799
aF-0.30000004193786023
aF0.69999999496968024
aF-0.10000006183288837
aF0.89999994683523843
aF-0.40000007166171697
aF-0.30000007211162477
aF-0.50000007273269254
aF0.099999963765833977
aF0.49999998477785301
aF0.89999996495582335
aF0.59999992105150624
aF-0.50000008867118451
aF-0.50000008444487132
aF0.99999997210230596
asg9
I0
sg10
I0
sba(inode
Node
p295
(dp296
g7
(lp297
F-1.0206241006489778
aF0.75079844588055411
aF-0.91918317503344782
aF0.28796148728840126
aF-1.0155382533206945
aF-0.52021428901032718
aF-0.61384941074769284
aF0.07875861482408944
aF0.78122903034326074
aF-0.52249287987458526
aF-1.0184400139085192
aF0.050453089658148945
aF0.74846235711357789
aF0.17410833039045021
aF0.047295037859546731
aF-0.91014303503049288
asg9
I0
sg10
I0
sba(inode
Node
p298
(dp299
g7
(lp300
F0.39998725212759173
aF0.59992774786083336
aF-0.9000501398520937
aF0.40000000011718145
aF-1.000026952824483
aF-0.10002534480157028
aF-0.90001782627228122
aF-0.20001352916967544
aF0.79994760011167854
aF-0.80000011753742184
aF-1.0000002307024232
aF0.79991526068085939
aF-0.70008465139003029
aF-5.8324319120617572e-05
aF0.19991514114986966
aF-0.60003214382400538
asg9
I0
sg10
I0
sba(inode
Node
p301
(dp302
g7
(lp303
F0.99999999592105904
aF-0.50000000052592031
aF0.69999999997858386
aF-0.70000000518158756
aF-0.50000000271381906
aF0.39999999746461667
aF0.29999999715020631
aF-0.30000000260536208
aF-2.0323819459673809e-09
aF0.39999999840112743
aF0.79999999833346702
aF0.69999999983079897
aF-2.4441545471242329e-09
aF0.79999999982490588
aF-0.30000000219875983
aF-0.10000000375464867
asg9
I0
sg10
I0
sba(inode
Node
p304
(dp305
g7
(lp306
F0.37106899876036836
aF0.46675750179306996
aF0.62828753742635102
aF-0.84994623538002889
aF-1.3865404680672639
aF0.076056512440003957
aF0.58951651412856787
aF-0.28497800547285268
aF0.57511576030402223
aF0.20324034642457489
aF-1.0233211475763166
aF-0.60254501220889245
aF-0.0022170755054114026
aF0.51152819735530652
aF0.61682944133561612
aF-0.66799197433088275
asg9
I0
sg10
I0
sba(inode
Node
p307
(dp308
g7
(lp309
F-0.45983268857316989
aF-0.11838220797776991
aF-0.80881784763111331
aF0.81165984173412353
aF-0.30344223855544344
aF-1.1469787001192706
aF0.25736636819535669
aF0.0053358874405258624
aF0.67039367897135238
aF-0.33100114322359664
aF0.45476238821806164
aF0.36908001386524003
aF-0.33379881664195371
aF-0.89501788030895602
aF1.1142632939463251
aF-0.87342525933481818
asg9
I0
sg10
I0
sba(inode
Node
p310
(dp311
g7
(lp312
F0.43045752147840988
aF0.57892889666646052
aF1.0203192278374422
aF0.19465305864084631
aF-0.34187859283850691
aF-0.10368709991681201
aF-0.57886416658886397
aF-0.52827634554816971
aF0.66267630387026177
aF-0.51881837862189228
aF-0.7177382915787256
aF0.61878038101451893
aF-0.75780687900900234
aF-0.75838798107097705
aF0.75337501846764177
aF-0.79291673951392427
asg9
I0
sg10
I0
sba(inode
Node
p313
(dp314
g7
(lp315
F-0.62375150405041646
aF-0.66004915923162888
aF-0.91942567805232212
aF0.93434883291842941
aF0.4823119389969574
aF0.05355682971410488
aF-0.50288251322427047
aF0.86307382559181911
aF-1.0000931889459286
aF0.040273347387247756
aF-1.0506921531688718
aF-0.50742273895001477
aF-0.61500065891289424
aF0.050597587926520214
aF-0.12047728793289458
aF1.0330696557826358
asg9
I0
sg10
I0
sba(inode
Node
p316
(dp317
g7
(lp318
F0.80000000000000004
aF0.59999999999999998
aF-0.5
aF0.59999999999999998
aF-0.40000000000000002
aF0.69999999999999996
aF0.90000000000000002
aF0.69999999999999996
aF-0.40000000000000002
aF0.40000000000000002
aF0.80000000000000004
aF0.29999999999999999
aF0.59999999999999998
aF0.80000000000000004
aF0.20000000000000001
aF-0.10000000000000001
asg9
I0
sg10
I0
sba(inode
Node
p319
(dp320
g7
(lp321
F0.35229917185715748
aF0.43356806745547738
aF-0.017436668490065903
aF0.97905040207468741
aF0.94352884426756278
aF-0.48519504211050096
aF0.89027023863046828
aF1.0625638982826653
aF0.29500507295363171
aF-0.94937752998177338
aF-0.77257118139994374
aF0.81577347661891841
aF-0.68336124659767539
aF-0.29684763801296732
aF-0.22471820997460365
aF0.089478975373398981
asg9
I0
sg10
I0
sba(inode
Node
p322
(dp323
g7
(lp324
F0.43968028409207222
aF0.33254384032977152
aF-0.14959408808713109
aF-0.64723804753313985
aF0.80727574010937253
aF0.77021923215032106
aF-0.53190703099622216
aF0.48040426339703773
aF-0.27244563044820264
aF0.95143544970869831
aF0.88308177029231105
aF0.30591147380002376
aF0.084042628531275684
aF-0.49977936408802598
aF0.90937318878769269
aF-0.44125382967440135
asg9
I0
sg10
I0
sba(inode
Node
p325
(dp326
g7
(lp327
F-0.078647191471397801
aF0.83880450669684503
aF0.048154928898475093
aF0.81209301781780563
aF-0.34978463635593809
aF-0.41692108826922858
aF0.2081229975054297
aF-0.57717076216975594
aF0.12242179199473931
aF-0.12140322117869633
aF-0.36885357160571269
aF0.57862056010067375
aF0.78528225866682222
aF-0.78272538397067815
aF0.82625655788199681
aF-0.8567201710907365
asg9
I0
sg10
I0
sba(inode
Node
p328
(dp329
g7
(lp330
F0.029757822537558307
aF-0.046192735577106507
aF-0.13658883495206811
aF0.065143696857793393
aF-0.15211182252419353
aF-0.52096438256507183
aF-0.77717272397819481
aF0.47059808579308665
aF-1.003504390691726
aF0.37571544102967014
aF-1.0170152852320706
aF-0.12375285356059623
aF-0.44453784752820658
aF-0.063727134289765217
aF0.10115748562295894
aF0.25762792238010779
asg9
I0
sg10
I0
sba(inode
Node
p331
(dp332
g7
(lp333
F0.19596163424693896
aF-0.001385766150122636
aF0.3947754684148132
aF-0.0024776654160950083
aF-0.0032149637553164578
aF-0.50335199509082551
aF-0.7999448621189863
aF0.19650454435748749
aF0.29692536960711696
aF-1.0014461844475355
aF-0.5004501530334885
aF-0.80287322838829567
aF-0.30346645484857004
aF0.09669027114153686
aF0.69720414069810221
aF-0.60070792834893583
asg9
I0
sg10
I0
sba(inode
Node
p334
(dp335
g7
(lp336
F0.42520145233260859
aF-0.085939400547645442
aF0.57219592818674314
aF0.81772671410864239
aF1.0052715480843861
aF0.31703152812487473
aF1.0139026271040799
aF-0.79607845835469671
aF0.12195380778739202
aF0.67073392407661181
aF-0.36949803221985328
aF-0.64222935435027839
aF0.64358902745153679
aF-0.32288172220091194
aF-0.81151431928356277
aF0.79697192681023787
asg9
I0
sg10
I0
sba(inode
Node
p337
(dp338
g7
(lp339
F-0.97469160824088441
aF0.25274705418320115
aF0.73068168765757424
aF1.1085145780856587
aF0.20345841476909146
aF-0.12753070663721416
aF-0.23645328628324572
aF-0.87223362245597358
aF-0.0075545442580201589
aF0.77498936544342034
aF0.47322959101311873
aF0.625188116587164
aF-0.38578248593471287
aF-0.80007755705270445
aF0.53318088131728603
aF0.85879937945137574
asg9
I0
sg10
I0
sba(inode
Node
p340
(dp341
g7
(lp342
F0.5862804774144329
aF0.67454376468683175
aF-0.82655129774500469
aF0.27719778902537701
aF-0.60916229610644146
aF0.39841158951974448
aF0.34200293386051606
aF0.16849767835748641
aF0.56907734733767223
aF-0.32329064492302728
aF-0.85773841235594239
aF-0.027484586036230448
aF0.27425573483286775
aF0.92386042540540292
aF-1.1334266956506776
aF0.26854936466040663
asg9
I0
sg10
I0
sba(inode
Node
p343
(dp344
g7
(lp345
F0.18502430108247328
aF-0.1759700153331932
aF0.31592901474497781
aF-0.59101218274266809
aF-0.71047814426224698
aF0.62972022634981983
aF0.5039709041550825
aF-0.90189171043112515
aF-0.026550758973538792
aF0.85898001064995921
aF-0.59262282346165052
aF0.71006450135980548
aF-1.0945811114962789
aF0.40978003131632007
aF-0.43502026971447855
aF-0.62524722943768019
asg9
I0
sg10
I0
sba(inode
Node
p346
(dp347
g7
(lp348
F-0.37238129642567003
aF-0.054274110735493861
aF-0.80302886080835045
aF0.39678228830072748
aF-0.071135874412087685
aF1.093984369374257
aF0.51990038805253647
aF-0.99432721812366909
aF0.91353491961874589
aF0.50052452491178545
aF0.90997103627701315
aF0.60197717406707263
aF-1.1706544991073671
aF-0.93994421870500033
aF0.24916200214075765
aF-1.0427077624585643
asg9
I0
sg10
I0
sba(inode
Node
p349
(dp350
g7
(lp351
F-0.45885405398658202
aF0.18714980682980853
aF0.24262209444745131
aF1.0715928415580174
aF-0.30920919389795892
aF0.61057845957706691
aF0.36305062510651792
aF0.86200753132361008
aF0.11909446155595906
aF0.47466056458921663
aF-0.7230313929365646
aF0.39062359099954724
aF0.26745631792824964
aF-0.43066834527356523
aF-0.35412203026982142
aF-0.051489067381388288
asg9
I0
sg10
I0
sba(inode
Node
p352
(dp353
g7
(lp354
F-0.99974385120956855
aF-0.59992840261094893
aF-0.79993021207508563
aF-0.50000003307281926
aF0.40020354986285916
aF0.00018905337959634988
aF-0.89998474699531728
aF0.10011794726320287
aF-0.69987225714637835
aF0.40028512369622338
aF-0.79990124665470363
aF0.400169032884714
aF-0.099856096311347772
aF1.0003452080469515
aF-0.8998652464394653
aF0.10011136132826259
asg9
I0
sg10
I0
sba(inode
Node
p355
(dp356
g7
(lp357
F-0.68463657024954994
aF0.36573279175898266
aF-1.0942093039682486
aF0.61175008209988235
aF0.48306883392274524
aF0.71950313968790047
aF0.28013830822319069
aF0.4613562412665253
aF-0.47005873357079508
aF0.8473156668266898
aF-0.15331024132266657
aF0.28889392504982681
aF0.050941421768255085
aF0.9407282537929107
aF-0.3193763903136545
aF-0.030268121518788112
asg9
I0
sg10
I0
sba(inode
Node
p358
(dp359
g7
(lp360
F0.068142124118072619
aF-0.45185454040721168
aF-0.70932157973562315
aF-0.3500865218949793
aF0.64013335940874982
aF0.57694869391634718
aF-1.1484959330186146
aF0.85204544328119625
aF0.058678394272429713
aF0.36523240297037307
aF-0.076901538654042353
aF-0.23242779937503719
aF-0.53301633004293347
aF-0.94484161416800083
aF-0.70102637803969314
aF-0.033151729239495616
asg9
I0
sg10
I0
sba(inode
Node
p361
(dp362
g7
(lp363
F0.10000677870736663
aF-1.1012996345241903
aF-0.40253026117357871
aF0.57902163215303515
aF-0.63765268760590554
aF0.20288285698945582
aF-0.36929406954062682
aF0.41297613205023614
aF-0.77626996945434246
aF0.20566337046955063
aF-0.50238304187479499
aF0.11289409021225795
aF-1.1497645714435831
aF-0.22854410429977243
aF0.49671569446176977
aF0.016463589492186553
asg9
I0
sg10
I0
sba(inode
Node
p364
(dp365
g7
(lp366
F-0.10000000000000001
aF0.69999999999999996
aF-0.5
aF1
aF0.90000000000000002
aF0.29999999999999999
aF-0.10000000000000001
aF0.10000000000000001
aF0.40000000000000002
aF0.80000000000000004
aF0.59999999999999998
aF0.5
aF1
aF0.80000000000000004
aF0.29999999999999999
aF-0.69999999999999996
asg9
I0
sg10
I0
sba(inode
Node
p367
(dp368
g7
(lp369
F0.59999754080349954
aF-0.50000737758950198
aF0.29999275186260077
aF-0.90000491839300178
aF0.69999822937851797
aF0.89999970489642012
aF0.19999685222847821
aF0.69999999999999996
aF0.69999999999999996
aF-0.10000619717519312
aF0.19999065505329525
aF0.29999429466411665
aF-0.7000069841180635
aF0.89999449139983589
aF0.99999488487127852
aF-0.60000983678600384
asg9
I0
sg10
I0
sba(inode
Node
p370
(dp371
g7
(lp372
F-0.28721380230766397
aF0.26446633437317052
aF0.4191800636050228
aF0.92649483140211697
aF-0.28090005850071775
aF0.38409426443173195
aF0.59962322506877419
aF0.69474041092596384
aF0.58244331180474462
aF0.53816147169655582
aF-1.0770944209600499
aF0.91535811035557357
aF0.068787815493260657
aF0.43234520355929273
aF-0.77811737786133484
aF-0.2881579700887214
asg9
I0
sg10
I0
sba(inode
Node
p373
(dp374
g7
(lp375
F0.19671952748611099
aF-1.4039511712508905
aF0.1073046249895462
aF0.79378355772244247
aF0.57668470475470346
aF-0.6976165072988334
aF0.6414038538564657
aF-0.02262348957899352
aF-0.16697689102246702
aF0.86938816130546837
aF0.28989559450933777
aF-1.0067976349467527
aF-0.00058882495017775955
aF-0.1275303990897183
aF-0.48790965581207391
aF-0.89585649885238305
asg9
I0
sg10
I0
sba(inode
Node
p376
(dp377
g7
(lp378
F-0.99239626013287308
aF1.1921347669072517
aF0.048612830564531674
aF-0.3724275387802653
aF0.33901215039201421
aF-0.77287898279853151
aF0.91527045722347977
aF-0.8466491136553852
aF-0.38551078966903451
aF0.053085746239744346
aF-0.33544922655557274
aF-0.16244414976733232
aF0.58775934785921435
aF-0.069898586221466233
aF-0.58174022707081308
aF-0.010379118667651782
asg9
I0
sg10
I0
sba(inode
Node
p379
(dp380
g7
(lp381
F0.53156042271357906
aF0.24297085467500709
aF-0.60325847429613078
aF-0.90600313755178064
aF-0.8564756815388701
aF-0.58806321456840049
aF0.10327139354488801
aF0.0041229879256086616
aF1.0370948192232337
aF-0.033725638086647913
aF-0.21234915135346202
aF-0.14955056093255142
aF-0.27008833129365462
aF0.78964227801293219
aF-0.38502124073128863
aF1.3317788654874398
asg9
I0
sg10
I0
sba(inode
Node
p382
(dp383
g7
(lp384
F0.60537819438545615
aF-0.59302152572757727
aF0.79016967383600145
aF1.1301998533366717
aF-0.82452084133973103
aF1.012925693897698
aF0.42296602356610352
aF-0.37965645558596306
aF0.20827395346574162
aF-0.40684454728508163
aF-0.85352756564331089
aF-0.6950887190903372
aF0.24822096177129679
aF-0.095972073831747579
aF-0.79762177118694
aF0.77506947177354946
asg9
I0
sg10
I0
sba(inode
Node
p385
(dp386
g7
(lp387
F0.2521351569064571
aF-0.50971304426177322
aF-0.36801646971852237
aF0.12109700220759928
aF0.35683727521561021
aF0.32927637029208451
aF-0.11166390522240215
aF-0.55783517931167914
aF-0.77181171423928296
aF-0.52853410862154648
aF0.28034826613045566
aF-0.90374104037208636
aF0.3793817560982275
aF0.20325893134453923
aF-0.24476546831662879
aF-0.012334452332154831
asg9
I0
sg10
I0
sba(inode
Node
p388
(dp389
g7
(lp390
F-0.63491845538162728
aF0.27396474698657025
aF0.41355818049343918
aF-0.88277639129909791
aF1.1157198249818538
aF0.52583229146149013
aF0.53028232735528325
aF-1.1312979835370849
aF0.92259713574702717
aF0.43023840968442761
aF0.79029298111508828
aF1.0297636899505178
aF-0.89723284653565749
aF0.20508053634099974
aF1.0162222768074516
aF-0.70535063475858528
asg9
I0
sg10
I0
sba(inode
Node
p391
(dp392
g7
(lp393
F-0.89178054485368963
aF0.62047582891620801
aF0.3601408365735333
aF0.60399209795812614
aF-0.71348219366442645
aF0.46846121016591441
aF-0.25093954046467215
aF-0.38858946357540136
aF-0.41631032546039198
aF-0.1305200157555374
aF0.57544764925245995
aF1.1430432288306167
aF0.330294842456686
aF-0.77451368937734055
aF-0.45708997928157202
aF-0.38850753742309968
asg9
I0
sg10
I0
sba(inode
Node
p394
(dp395
g7
(lp396
F-0.41439794706383637
aF-0.69864290630872039
aF0.33288061584174228
aF-0.61661645348053062
aF-0.302936166868156
aF0.29093466322323591
aF-0.35880487107914932
aF0.11190996934492327
aF-0.91858617960294697
aF-0.72439148723434665
aF0.54827104561297768
aF-0.63440749348887826
aF0.88855546206917357
aF-0.43691077254418209
aF0.64532020189007155
aF0.31092522829419111
asg9
I0
sg10
I0
sba(inode
Node
p397
(dp398
g7
(lp399
F-0.94551298850765231
aF-0.6448263650087408
aF-0.070278669151025638
aF-0.48521168054219505
aF-0.56576225090833199
aF-0.83565923866260006
aF0.85397784284707001
aF-0.53568809351823465
aF0.72233869584895627
aF-0.076736888817327764
aF0.7148331133762581
aF-0.22677419248154743
aF-0.5544402957832979
aF-0.62134655065830191
aF0.70892673824668129
aF0.99280339815518104
asg9
I0
sg10
I0
sba(inode
Node
p400
(dp401
g7
(lp402
F-0.78543013763226577
aF0.59180627637743755
aF-0.95869817430027671
aF0.79378908559527217
aF0.60491528058459221
aF0.023584199334193118
aF-0.86559068371939263
aF0.77243168710956378
aF0.12419707823708448
aF0.51549032685234586
aF-0.93472801479256884
aF-0.95973965325799582
aF-0.49666159607764249
aF-0.48349532787653743
aF-0.99519930103450638
aF0.065534866327043098
asg9
I0
sg10
I0
sba(inode
Node
p403
(dp404
g7
(lp405
F-0.60000000959042377
aF-0.20000000053101871
aF0.59999999942344528
aF0.19999999332492746
aF0.09999998929523525
aF0.99999999634575532
aF0.19999999584285891
aF-0.30000000544055316
aF-0.90000000984379447
aF0.39999999229788763
aF0.19999999887376838
aF0.99999999925208205
aF0.79999999828765267
aF0.29999999507509656
aF0.29999999863002519
aF0.49999999328510919
asg9
I0
sg10
I0
sba(inode
Node
p406
(dp407
g7
(lp408
F-0.22220369984444086
aF-0.71589948318664687
aF0.86208731688027762
aF0.051876855621240787
aF-0.90797564349434146
aF0.78088862197621889
aF0.9586526869599733
aF0.92866009740376398
aF0.67241487078259732
aF-1.1202348795825852
aF-0.92290103897743014
aF-0.8056085457539307
aF-0.24422005085097909
aF-0.055272474662057362
aF-0.79783281461522604
aF-0.65037487241909986
asg9
I0
sg10
I0
sba(inode
Node
p409
(dp410
g7
(lp411
F-0.8515301087220738
aF-0.83163998698184338
aF-1.0033182543463284
aF-0.48183893403261602
aF-0.89740375306621856
aF0.23133656709035064
aF0.79084291026566689
aF0.63736443630636574
aF0.081645607904047804
aF-0.099369940149596978
aF0.42750287589490227
aF-0.4663191677541767
aF-0.96273529685652504
aF1.0645871685021908
aF0.32531523665967371
aF-0.37302009616148057
asg9
I0
sg10
I0
sba(inode
Node
p412
(dp413
g7
(lp414
F1
aF0.59999999999999998
aF-0.20000000000000001
aF-0.10000000000000001
aF1
aF0.80000000000000004
aF0.90000000000000002
aF-0.5
aF0.29999999999999999
aF-0.29999999999999999
aF-0.29999999999999999
aF-0.20000000000000001
aF0.69999999999999996
aF0.80000000000000004
aF0.40000000000000002
aF-0.29999999999999999
asg9
I0
sg10
I0
sba(inode
Node
p415
(dp416
g7
(lp417
F1.1419837314810131
aF-1.4647370152423658
aF-0.64855275885888508
aF-0.42318637962134126
aF-1.0180952974977944
aF-0.72718794512665963
aF0.27938825356929786
aF-0.23602206783780069
aF0.01103670450871537
aF-0.34011941255932293
aF-0.57474126488684685
aF-0.46418848214686481
aF-0.15091620281129248
aF-0.16058963298930917
aF0.63505599840049609
aF0.14207762024759613
asg9
I0
sg10
I0
sba(inode
Node
p418
(dp419
g7
(lp420
F-0.42253415671005018
aF0.37910647529115932
aF0.89240841770921164
aF-0.31158564883828771
aF0.80652122394433834
aF0.87203062728118741
aF-0.72942164396888132
aF-0.4954706714123186
aF0.027089914934697156
aF0.51531883474700402
aF0.18152808659760838
aF-0.16959994263368783
aF0.57425056613417702
aF-0.16089345200931265
aF0.38710007988519662
aF0.075803206535977594
asg9
I0
sg10
I0
sba(inode
Node
p421
(dp422
g7
(lp423
F-0.34562899830882021
aF-0.61384743120745944
aF0.68087983180980705
aF-0.31543373757886728
aF-0.96202570078689309
aF-0.26451024200108503
aF0.3508820388091658
aF0.61317588428282666
aF-0.49485090848177976
aF-0.3194664481298749
aF-0.26558603160671007
aF-0.53997618977236406
aF-0.87377171218948546
aF0.90640432003122939
aF0.85627911490025299
aF-0.31098055640759054
asg9
I0
sg10
I0
sba(inode
Node
p424
(dp425
g7
(lp426
F-0.29999999999999999
aF-0.5
aF-0.80000000000000004
aF0.40000000000000002
aF-0.59999999999999998
aF0.29999999999999999
aF-0.59999999999999998
aF-0.80000000000000004
aF1
aF-1
aF-0.10000000000000001
aF0.5
aF-0.59999999999999998
aF-0.59999999999999998
aF0.10000000000000001
aF-0.29999999999999999
asg9
I0
sg10
I0
sba(inode
Node
p427
(dp428
g7
(lp429
F-0.23302352441415775
aF1.0618745780017758
aF-0.9937761299616199
aF0.31949263854912502
aF-0.90856090214832852
aF0.44764496316601471
aF-0.78922700077781871
aF0.74701835460711041
aF-0.17721251734199422
aF1.0086836048707259
aF-0.74042488134642581
aF0.71552843176682523
aF-0.26109011669552612
aF-0.61628034890536443
aF-0.68951466426460162
aF-0.51942476161094209
asg9
I0
sg10
I0
sba(inode
Node
p430
(dp431
g7
(lp432
F0.45004471239036892
aF-0.87390141734743476
aF0.36111977761034864
aF-0.2768907745088886
aF-0.67267342300468769
aF0.60303614255484106
aF0.33416854183983191
aF-0.9341603155900825
aF-0.23541852695795892
aF-0.34467857737896418
aF0.25506250674452063
aF0.78834770365611107
aF-0.54820361867881628
aF-0.74738746719166793
aF-0.92606265763109674
aF0.18252993532672929
asg9
I0
sg10
I0
sba(inode
Node
p433
(dp434
g7
(lp435
F-0.093194636428419714
aF-0.39890251932747883
aF0.60359388410194759
aF-0.30684665790687066
aF1.0021423146324271
aF-0.19575614176391978
aF0.10359665811616657
aF-0.096923021342106355
aF0.30278887461830295
aF-0.3898602017803055
aF0.99891103132615755
aF0.19825939966466377
aF0.90121336977439082
aF-0.89765189649476107
aF0.0025192820038405324
aF0.60155722506200304
asg9
I0
sg10
I0
sba(inode
Node
p436
(dp437
g7
(lp438
F-0.53335820615562646
aF-0.45121556567425708
aF-0.18752120847144227
aF0.8118696272239615
aF0.3357695785697512
aF0.46909414054695209
aF-0.91050158865557396
aF-0.83232552788680103
aF-0.84877010860281699
aF-0.312038038705716
aF0.16125134798473431
aF0.73511671991734473
aF0.79885644333166395
aF-0.87406816740709359
aF-0.26506983886824798
aF0.11986613763262798
asg9
I0
sg10
I0
sba(inode
Node
p439
(dp440
g7
(lp441
F0.76488314276478386
aF-0.91681229459242952
aF0.36479554607682685
aF-0.11372502908337473
aF-1.0185160369527217
aF-0.3135859955922719
aF-0.70157437957280555
aF0.08663032811605155
aF-0.71240122770227376
aF-0.9199467584577693
aF-1.008941300759753
aF0.27499652245926814
aF0.66755543803622708
aF0.27364438209032482
aF0.1733471605747339
aF-0.61692013023593395
asg9
I0
sg10
I0
sba(inode
Node
p442
(dp443
g7
(lp444
F0.80000000000000004
aF0.90000000000000002
aF-0.29999999999999999
aF1
aF-0.5
aF-0.5
aF1
aF-0.80000000000000004
aF0.80000000000000004
aF0
aF0.20000000000000001
aF-0.10000000000000001
aF0.69999999999999996
aF-0.40000000000000002
aF1
aF0.90000000000000002
asg9
I0
sg10
I0
sba(inode
Node
p445
(dp446
g7
(lp447
F0.14555680320250949
aF0.29288068647568727
aF-0.63560289051876673
aF-0.067881043240105216
aF0.13041697151798953
aF-0.88963864563733852
aF0.022501416341517443
aF-0.9769350514185311
aF-0.75952266267433111
aF-0.51668847381798477
aF0.42677904878134632
aF1.0637439950985772
aF0.64075129254663576
aF-0.22039466846522579
aF0.2010452903504403
aF0.20852129790208832
asg9
I0
sg10
I0
sba(inode
Node
p448
(dp449
g7
(lp450
F-0.29989334788607769
aF-0.25557752113214749
aF0.70210172305985874
aF0.63243653552246704
aF-1.1835208468002407
aF-1.0108878308755624
aF0.95155230395371571
aF-0.99223550083496914
aF-0.4247029562776552
aF0.20693387670155508
aF0.02878861677744957
aF-0.2921249257956347
aF-0.23515668463301767
aF-0.27996555395832079
aF1.051960348485881
aF-0.21741663538425957
asg9
I0
sg10
I0
sba(inode
Node
p451
(dp452
g7
(lp453
F1
aF-0.80000000000000004
aF-0.40000000000000002
aF-1
aF0.29999999999999999
aF-0.90000000000000002
aF-0.20000000000000001
aF-0.80000000000000004
aF0.59999999999999998
aF-0.80000000000000004
aF-1.2683502613860909e-17
aF0.20000000000000001
aF-0.5
aF-0.5
aF-0.80000000000000004
aF-0.29999999999999999
asg9
I0
sg10
I0
sba(inode
Node
p454
(dp455
g7
(lp456
F0.70104945862811485
aF0.30249640927848309
aF-0.29673519429926642
aF0.20000315770734664
aF0.10130172661441041
aF0.00038909864537596713
aF0.60045739611476245
aF0.00053296673095494355
aF-0.49889411102145914
aF0.80024218362979127
aF-0.29801951965827561
aF-0.79742567213334614
aF0.30243307670718994
aF1.0005782196715491
aF0.10308701088298615
aF0.50107353957341993
asg9
I0
sg10
I0
sba(inode
Node
p457
(dp458
g7
(lp459
F-0.8672285712234612
aF0.64176295416164997
aF0.52153367832014408
aF-0.7167555917256504
aF1.31779151808905
aF0.084373012418516524
aF-1.2147872586747501
aF-1.2060274895873846
aF0.35604260317606945
aF-0.87069805451133742
aF0.60418119920057922
aF0.7509005490800732
aF-0.10691514627877143
aF0.54297416780808228
aF-0.24033364756204836
aF0.29222360658816976
asg9
I0
sg10
I0
sba(inode
Node
p460
(dp461
g7
(lp462
F-0.30000000000007693
aF-0.10000000000002926
aF-0.8000000000000187
aF0.69999999999995366
aF-0.40000000000004399
aF-0.90000000000001779
aF-0.50000000000006228
aF-0.80000000000001803
aF-0.69999999999999996
aF0.99999999999991962
aF-0.80000000000001459
aF-0.90000000000001523
aF0.099999999999959024
aF0.29999999999991001
aF-2.2481131378175397e-14
aF-0.10000000000009988
asg9
I0
sg10
I0
sbasb.