(ineural_network
Neural_Network
p1
(dp2
S'output_nodes'
p3
(lp4
(inode
Node
p5
(dp6
S'weights'
p7
(lp8
F0.94230244557857956
aF-0.44361618891488058
aF0.43759825314732687
aF-0.76547396189108752
aF0.3655941055811584
aF0.73203840517230656
aF-0.58667857304843318
aF-0.5211138469231974
aF0.19915183743697545
aF0.34432056295947022
aF0.42141036460865738
aF-0.73143154616191963
aF-0.41879031307282333
aF-0.70759087041852531
aF-0.54361311351467623
aF0.48990699424804551
aF0.13229126216942225
aF-0.24989567982615321
aF-0.56240174685265187
aF-0.4595433765929014
aF1.0301117500398818
aF0.73759825314734795
aF-0.65725388611015623
aF0.36220179354289617
aF-0.80000000000000004
aF-0.37906961016263163
aF0.49856510811758153
aF0.26210993739925342
aF-0.90000952361741871
aF-0.0054616159543936426
aF0.14267678156334029
aF-0.50262538074043794
aF0.20000000000000001
aF-0.2401992691451309
aF-0.39145861582108782
aF-0.052591158327571198
aF-0.77438512640072288
aF-0.099930198227126191
aF-0.9889233623835546
aF-0.92606235109735446
aF0.40271476562942893
aF0.23759825314788799
aF0.9909849168733611
aF0.28252019099817122
aF0.73114630468291575
aF0.072573271230426159
aF-1.2090109828235212
aF0.8041852612796786
aF0.53041527651065656
aF-0.45346041529107506
aF-0.34343632222527593
aF-1.0785478183851982
aF-0.22667059209542995
aF0.13535124345255192
aF0.4804571838516265
aF0.26668895510251717
aF-0.10245280753235086
aF0.08536256095172183
aF0.23759825314734409
aF0.17968933548286894
aF0.141675365886234
aF-0.80000000000000004
aF0.537598253164003
aF0.29151460129197199
aF-0.49930629187587638
aF0.48608775474427274
aF-0.46958172889081012
aF-0.76240174685265205
aF-0.59999999999999998
aF0.36945432180069138
aF-0.60481881545461269
aF-0.20000000000000001
aF0.5424950669464883
aF0.43759825314732687
aF0.45365158511975479
aF0.34775179929438393
aF-0.98584527812191181
aF0.71478273663250558
aF0.62234817831905631
aF-0.58486168017139195
aF-0.31028964709881302
aF-0.90000000000000002
aF-0.46240174685266577
aF1.0376092960517382
aF-0.6585426279990988
aF1.3906853288293022
aF0.21765662349053888
aF-0.80000000005784844
aF0.1077159770639278
aF0.46560310236741587
aF0.28251028718193749
aF-0.41642407576191592
aF-0.63580653808671461
aF-0.82828836308603482
aF-0.40690262830599566
aF-0.50062329804752825
aF0.60564752529788912
aF-0.45825130405323328
aF-0.90974074631248181
aF0.72945946849600729
asS'calculated_value'
p9
I0
sS'delta'
p10
I0
sbasS'hidden_nodes'
p11
(lp12
(inode
Node
p13
(dp14
g7
(lp15
F-0.75718802907456184
aF0.30009245660688333
aF-0.30238570724942532
aF-0.19079903404333948
aF-1.0949359318514524
aF-0.48814533983483399
aF-0.38694755516363455
aF0.83292526321294724
aF0.96159869446475299
aF-0.19032286340983556
aF-0.44683475369214909
aF0.57774053082415644
aF-0.040891074420828302
aF0.72770692871846498
aF-0.32906843372342154
aF-0.89961722505287889
asg9
I0
sg10
I0
sba(inode
Node
p16
(dp17
g7
(lp18
F-0.4131837622027642
aF-0.65407373444363304
aF-0.90166693682653209
aF-0.23088847890797215
aF0.80749215786554951
aF0.21835892545985183
aF0.68617251254732536
aF-0.4114566336620944
aF0.69500244356553553
aF-1.1641731636077441
aF0.86489206825396714
aF0.18958358041181084
aF1.0453884941523524
aF-0.59319667397279663
aF0.27685072608411537
aF0.88143588790916971
asg9
I0
sg10
I0
sba(inode
Node
p19
(dp20
g7
(lp21
F-0.10000000000000001
aF0.40000000000000002
aF0
aF-0.10000000000000001
aF0.20000000000000001
aF0.5
aF0.20000000000000001
aF0.20000000000000001
aF0.29999999999999999
aF1
aF-0.10000000000000001
aF0.10000000000000001
aF0.40000000000000002
aF0.40000000000000002
aF0.10000000000000001
aF-0.29999999999999999
asg9
I0
sg10
I0
sba(inode
Node
p22
(dp23
g7
(lp24
F-0.50513846753825309
aF-0.0034256477278402043
aF-0.90346408714200344
aF-0.89999999997261648
aF-0.005480834736783056
aF-1.0028268886471585
aF0.6941677723440276
aF-0.90171646309293529
aF-0.80000071670082962
aF0.091439440303725195
aF0.39187621945976514
aF-1.0017120210838215
aF-0.40119581081899258
aF-1.0012799016451808
aF-0.60171244805003887
aF0.89297846789577096
asg9
I0
sg10
I0
sba(inode
Node
p25
(dp26
g7
(lp27
F-0.59934225481338332
aF-0.57775056844523964
aF-0.64037854390931914
aF-0.7084144810090004
aF0.44113739251423201
aF-0.28026040906169852
aF0.66517166061813715
aF1.0843905404642804
aF0.0094334703743882298
aF-0.18835429589997985
aF-0.50795249662371744
aF0.88491624044067152
aF0.90448892195048713
aF-0.22857991443121761
aF0.25951540860547012
aF0.66625842188699824
asg9
I0
sg10
I0
sba(inode
Node
p28
(dp29
g7
(lp30
F-0.70105935895748006
aF0.79999992825478394
aF0.39987725695135967
aF0.49999998562963494
aF0.89938556089596411
aF0.29926903101118629
aF0.29907833229533559
aF-0.60099573959647035
aF0.099343231059785944
aF-0.30105925564474167
aF0.49999999474144136
aF0.99999997872222868
aF0.59985171065386189
aF0.19984109437186481
aF-0.30016956181572124
aF0.69954446174003238
asg9
I0
sg10
I0
sba(inode
Node
p31
(dp32
g7
(lp33
F-1.107171699997844
aF0.93432465417989108
aF-0.21599546241479134
aF0.0087322162736219542
aF0.14220867036801041
aF0.25962400361809118
aF-0.002133820564994642
aF-0.050156774401459013
aF-0.073653315429312777
aF-0.78535296746094652
aF-0.69404453448049075
aF0.63713499348686575
aF-0.80354325246314595
aF0.93998043889068605
aF0.42208432575974897
aF0.79187463143400894
asg9
I0
sg10
I0
sba(inode
Node
p34
(dp35
g7
(lp36
F0.0041282355581152659
aF0.42833152187544582
aF0.80260906759667261
aF-0.5
aF0.60000000000000686
aF1.0000000000000346
aF0.50405385426282601
aF0.80074795888958827
aF0.0025473987242919331
aF0.1023393334829046
aF-0.36847519117851657
aF0.021514972814367633
aF0.80749405056133972
aF0.50371541200227954
aF-0.67843564531509271
aF0.11950746773834831
asg9
I0
sg10
I0
sba(inode
Node
p37
(dp38
g7
(lp39
F0.80473613743971928
aF-0.94099476544471383
aF-1.0068530287249795
aF-0.34294527551569837
aF0.48958602937070034
aF0.69850882149599802
aF-0.69051719838725978
aF0.52814155640406202
aF-0.91720842235855338
aF0.87499429605306633
aF0.29834636469315667
aF0.19439926526054602
aF-0.78210648167998609
aF0.75417579485884445
aF-1.1719857730292209
aF-0.045343998382560056
asg9
I0
sg10
I0
sba(inode
Node
p40
(dp41
g7
(lp42
F-0.25813193873433971
aF0.39821900460673909
aF-0.48410200638551781
aF-0.21541084855359247
aF0.15652301249413919
aF-0.039204680685204933
aF-0.24262470150668736
aF0.056550831759651823
aF-0.23926612083320128
aF0.51308970847824942
aF-0.19322203132484717
aF-0.34301529821872428
aF-0.79118778568531212
aF0.03958538407592728
aF-0.72150131461161549
aF0.14720611180840218
asg9
I0
sg10
I0
sba(inode
Node
p43
(dp44
g7
(lp45
F0.60138366786846464
aF0.40664026846842638
aF-0.050646676131348892
aF0.33707212557322441
aF-0.21847207422565143
aF-0.96596293034757119
aF-0.18657709848631568
aF-0.6252315068677311
aF0.43614314312659319
aF0.65314208229604809
aF-0.13520289715063213
aF-0.083656735023535461
aF0.8815585290242558
aF0.65716224024903069
aF0.64435201291699773
aF0.20486571197315509
asg9
I0
sg10
I0
sba(inode
Node
p46
(dp47
g7
(lp48
F-0.15657124120789512
aF-0.45377629464502189
aF-0.24558824535030885
aF0.2013340782864563
aF0.80810322989248851
aF-0.36996333452868907
aF0.18031075048609527
aF-0.60460771077536946
aF0.43447125531232106
aF-0.3358096852040362
aF1.008662493250301
aF-0.061450365693916584
aF-0.88999758845943522
aF-0.47371412003007374
aF0.22653193118517392
aF-0.51975506328842003
asg9
I0
sg10
I0
sba(inode
Node
p49
(dp50
g7
(lp51
F-0.37392325211740807
aF-0.30943387501823882
aF-0.36094605350584336
aF0.44073450500673722
aF-0.62501775231600676
aF-0.11200790445881419
aF0.013632698463458322
aF-0.028896419325292327
aF-0.1087557921420529
aF-0.19235000344652839
aF0.76221272251727357
aF0.90535641115635923
aF0.22207254030579812
aF0.0073722036035927738
aF0.36028855481949368
aF-0.8838088580472887
asg9
I0
sg10
I0
sba(inode
Node
p52
(dp53
g7
(lp54
F0.80154555965510366
aF-0.39483605284738987
aF1.0003207469562674
aF-0.099999866647227972
aF1.0016049427618769
aF0.30267446385271923
aF0.40114035292067241
aF0.10160579752831385
aF0.50353971968172972
aF0.10095295972331303
aF-0.99483897230209772
aF0.10175151440017713
aF0.10141059982418123
aF0.60000158556236605
aF-0.69557730398333162
aF1.0033482852952686
asg9
I0
sg10
I0
sba(inode
Node
p55
(dp56
g7
(lp57
F-0.23248873381521526
aF0.49329805569053176
aF0.3852401506914595
aF-1.0588473517606638
aF0.53531294230543591
aF1.152370137039765
aF-0.46101943220508529
aF-0.89590214754946629
aF-0.76101912472029787
aF-0.49570397566379093
aF0.35568961501089702
aF0.4697491456679288
aF-0.32580451024371088
aF0.71433315394591856
aF0.78547170591138904
aF-0.89251242983737533
asg9
I0
sg10
I0
sba(inode
Node
p58
(dp59
g7
(lp60
F-0.62925344119665449
aF0.1060396550250781
aF0.57158818570741665
aF0.62102068177264624
aF-0.66703142046976949
aF0.64853076512676888
aF-0.80857572964305291
aF0.33991487513505547
aF0.94376508633106593
aF-0.45749912350956135
aF1.0925980084411202
aF1.009715355346734
aF-0.48907468866232762
aF1.050966590597064
aF0.70097858768849408
aF0.61807343480261701
asg9
I0
sg10
I0
sba(inode
Node
p61
(dp62
g7
(lp63
F-0.17987404163205584
aF-0.59302329655906905
aF0.20074646815606154
aF0.0019223371780927887
aF0.21289576877390351
aF-0.28132811730072405
aF0.2209942766125168
aF1.0090952848837316
aF0.31022928341625039
aF-0.57262427149487605
aF0.80175231563339
aF0.80287771459730795
aF0.40156723649363474
aF-0.29663717875555934
aF0.6043211524001445
aF0.41136643743437795
asg9
I0
sg10
I0
sba(inode
Node
p64
(dp65
g7
(lp66
F-0.42974860321624547
aF-0.42421457130814666
aF0.46853127244673387
aF0.84445740473471009
aF0.73062467171981427
aF0.86325440566896239
aF-0.87580729507009636
aF-0.77713118354133737
aF-0.48158647378776226
aF0.97344946160139711
aF-0.39457714713089198
aF-0.67840486372512498
aF0.44985101762259339
aF0.95848843457749011
aF0.55884048410197851
aF0.53365316685159669
asg9
I0
sg10
I0
sba(inode
Node
p67
(dp68
g7
(lp69
F1
aF1
aF0.20000000000000001
aF0.29999999999999999
aF-0.29999999999999999
aF0.10000000000000001
aF0.59999999999999998
aF1
aF0.5
aF0.90000000000000002
aF-0.5
aF-0.10000000000000001
aF0.20000000000000001
aF-0.20000000000000001
aF0.29999999999999999
aF0.90000000000000002
asg9
I0
sg10
I0
sba(inode
Node
p70
(dp71
g7
(lp72
F0.69663590856820956
aF0.29161810949676026
aF0.67936845381493005
aF0.086612491377389647
aF-0.1484825975579816
aF-0.23255329864344332
aF0.7874031708334106
aF-0.54795928748912448
aF-0.20462415270701612
aF-0.1996921461678593
aF-0.62135586781092167
aF0.65454752484354795
aF-0.062437008738168827
aF-0.43314091115532494
aF0.69042584098915849
aF-0.12223190087267129
asg9
I0
sg10
I0
sba(inode
Node
p73
(dp74
g7
(lp75
F1.0177229884044516
aF-0.11340790151580896
aF-0.60800216669952045
aF-0.07340931253640115
aF-0.76019811710786711
aF0.71277496666321027
aF-0.041703808798374702
aF0.18895284803759621
aF0.74246362877927297
aF-0.53733455815135567
aF-0.54108213238965341
aF-0.38828549348108266
aF0.69679481275152033
aF-0.089139637367384103
aF-0.79571758658950753
aF0.30892785410337054
asg9
I0
sg10
I0
sba(inode
Node
p76
(dp77
g7
(lp78
F0.90000000000000002
aF0.69999999999999996
aF-0.10000000000000001
aF0.5
aF-0.29999999999999999
aF-0.20000000000000001
aF0.10000000000000001
aF0.90000000000000002
aF-0.69999999999999996
aF1
aF-0.69999999999999996
aF0.5
aF0.10000000000000001
aF0.5
aF0.59999999999999998
aF0.20000000000000001
asg9
I0
sg10
I0
sba(inode
Node
p79
(dp80
g7
(lp81
F0.90385325351977119
aF-0.074434862130642043
aF1.0109721300784662
aF0.59999991914489681
aF-0.59139243933076013
aF0.21368205295684323
aF-0.58418576763058894
aF0.81421252192537952
aF-0.38127144950739039
aF0.70520990850706367
aF0.61314390399097241
aF-0.47423769838145491
aF1.0228465735645109
aF-0.97810539402318852
aF-0.2752615172621069
aF0.70322316755743952
asg9
I0
sg10
I0
sba(inode
Node
p82
(dp83
g7
(lp84
F0.15224726484267601
aF0.35086201810702078
aF-0.51835931683383485
aF-0.37951120915726611
aF0.84629269813867436
aF-0.99260898156319832
aF-1.2207769559446295
aF0.30761303600645312
aF0.25769226485870983
aF-0.59731261262377999
aF0.67551151618271266
aF-0.7624204358360811
aF0.29282470330759031
aF0.86908568151460497
aF0.29931226645274867
aF0.94283139348609357
asg9
I0
sg10
I0
sba(inode
Node
p85
(dp86
g7
(lp87
F0.5
aF-1.1406174906436247e-24
aF-0.59999999999999998
aF0.29999999999999999
aF-0.80000000000000004
aF-0.29999999999999999
aF-0.80000000000000004
aF0.10000000000000001
aF-0.10000000000000001
aF-0.80000000000000004
aF-0.69999999999999996
aF0.5
aF-0.90000000000000002
aF-0.5
aF-0.59999999999999998
aF0.5
asg9
I0
sg10
I0
sba(inode
Node
p88
(dp89
g7
(lp90
F-0.77824431679950523
aF0.73327755903923353
aF0.70875786649781647
aF0.88371414445993968
aF-0.53294760392821283
aF-0.45112037225157048
aF0.56456858238672436
aF-0.48712482292597548
aF0.74681056687976755
aF0.022418712979409922
aF0.007699234664526552
aF-0.79915756800913418
aF1.1668142307006517
aF0.10914152661847715
aF-0.91004613269033907
aF-0.088063518395713219
asg9
I0
sg10
I0
sba(inode
Node
p91
(dp92
g7
(lp93
F-0.55163257569890134
aF0.6724536454343264
aF0.25307079963587742
aF0.13606411640351052
aF-0.82828239724220931
aF0.64772685746254466
aF0.405823045177442
aF1.1524143322382852
aF0.31305673848733168
aF-0.63842325888521678
aF-0.79381680716865799
aF-0.33971432894974973
aF-0.2724102421869885
aF0.95105035370051094
aF-0.4071560673489098
aF0.13507780493058849
asg9
I0
sg10
I0
sba(inode
Node
p94
(dp95
g7
(lp96
F0.27766083045319895
aF0.93144011735039123
aF-0.9337908334124505
aF0.80151595089041938
aF1.0377986237729642
aF0.7349594469052152
aF-0.43035255589569682
aF0.15136587156629933
aF0.24284021298585098
aF0.43178049382364897
aF-0.066412044812304644
aF0.41488940639357769
aF-0.25365004230235277
aF0.42541226596238024
aF0.74491722396368154
aF-0.92240722540235531
asg9
I0
sg10
I0
sba(inode
Node
p97
(dp98
g7
(lp99
F-0.39929558977984636
aF-0.19983296266654077
aF-0.29969552325259707
aF-0.59998830000889092
aF0.8006392463362515
aF-0.39941816261259738
aF-0.39944301207659533
aF0.0007098973058594012
aF-0.89964887272267791
aF0.60085657828236749
aF-0.19995547836242486
aF0.60035962776645102
aF-0.6996756479458629
aF0.5006319620265175
aF-0.79998227272743749
aF-0.39948564134048442
asg9
I0
sg10
I0
sba(inode
Node
p100
(dp101
g7
(lp102
F0.30030824696978348
aF0.10150435835226884
aF1.0004245688323263
aF-0.59999997565541374
aF0.70005431226453108
aF0.40025344566070159
aF-0.29999967024014251
aF0.30000000219197875
aF0.80057934073013259
aF0.5000000991654252
aF-0.29876767079354077
aF-0.39907534173662451
aF-0.9992022920767667
aF0.50014565632553243
aF0.1014315966610423
aF0.40021761324282906
asg9
I0
sg10
I0
sba(inode
Node
p103
(dp104
g7
(lp105
F-0.17577089901626136
aF-0.85383095102257311
aF-0.10837097659725781
aF-1.0379951657394884
aF-0.092690309983945424
aF1.0549438937508118
aF0.14206232384492432
aF-1.0247031761609833
aF0.87053979391271685
aF0.72792723156491612
aF-0.37404917776978541
aF-0.068000282262159054
aF0.8222836990634117
aF-0.95151890184650778
aF-0.26427708269785843
aF-0.093417636925726522
asg9
I0
sg10
I0
sba(inode
Node
p106
(dp107
g7
(lp108
F-0.79793690535788109
aF0.99647485839707617
aF-0.41265887301185061
aF-1.0044012849450583
aF-0.96031984307265128
aF-0.25809548736653659
aF0.43135283513774686
aF0.41923528852621017
aF0.8516589079103668
aF-0.85810333753971091
aF0.28777399994276193
aF-0.46688726516279788
aF0.97411227441037984
aF-0.46614493268672835
aF0.3739792051895468
aF-0.72331389379676003
asg9
I0
sg10
I0
sba(inode
Node
p109
(dp110
g7
(lp111
F-0.10000000000000001
aF-1
aF-0.40000000000000002
aF0.59999999999999998
aF0.40000000000000002
aF-0.29999999999999999
aF4.8660474720478027e-27
aF-0.90000000000000002
aF0.29999999999999999
aF-0.90000000000000002
aF0.40000000000000002
aF0.10000000000000001
aF0.20000000000000001
aF-3.066690615411534e-26
aF-0.80000000000000004
aF-0.90000000000000002
asg9
I0
sg10
I0
sba(inode
Node
p112
(dp113
g7
(lp114
F-0.41454272549474236
aF0.81140827403739035
aF-0.6826235570643423
aF0.69958926973179925
aF0.39276033279414874
aF0.59255569307539058
aF-0.31769803549086695
aF-0.21248194868132625
aF0.98702502754071297
aF0.50620791684884303
aF0.10032835133858509
aF0.20105178428803433
aF0.20600099022340668
aF0.39794145607668302
aF0.50794997204989822
aF-0.40720155618762832
asg9
I0
sg10
I0
sba(inode
Node
p115
(dp116
g7
(lp117
F0.28920066537211775
aF-0.69462788371260509
aF0.59966834731208485
aF-0.49273459247720047
aF-1.0086690974719839
aF0.094342938689332523
aF0.9965935657752415
aF-1.0014159397487816
aF-0.70508580724233438
aF-1.0033357804670548
aF0.59976797910970781
aF0.3042305452289214
aF-0.99594621481082568
aF0.70201525717037483
aF-0.1965647962806997
aF-0.50335249076403188
asg9
I0
sg10
I0
sba(inode
Node
p118
(dp119
g7
(lp120
F0.30686695690960081
aF0.77866861228851969
aF0.46584019932494919
aF0.78827643506740575
aF-0.78010704088225269
aF-1.0732357933864187
aF0.16215391034396609
aF-1.08382740653583
aF-0.24788659683518807
aF-0.67169372440868125
aF0.6046861420496803
aF0.51066532903869188
aF0.33975187992948763
aF0.23054195659880805
aF-0.54619997356028593
aF-0.024817115930674941
asg9
I0
sg10
I0
sba(inode
Node
p121
(dp122
g7
(lp123
F0.90131025039073254
aF0.24372837653508722
aF0.40991728883169343
aF0.20031391147269759
aF1.0012599504723676
aF0.20204697301270153
aF-0.49127260952752377
aF0.50323946157107735
aF0.30511289884034726
aF-0.4967127484695103
aF0.2363998057151821
aF0.63487165080167796
aF-0.88624194392722422
aF0.7037775147624401
aF-0.76289046131559035
aF-0.17693513577399775
asg9
I0
sg10
I0
sba(inode
Node
p124
(dp125
g7
(lp126
F-0.00069757401342416517
aF6.4628098969473439e-08
aF0.2995492976856029
aF0.29930235002654587
aF-0.20033479307243218
aF-0.70033482980530681
aF-0.40037668043351421
aF-0.20032786184060841
aF-0.20015344637056964
aF-0.20059294359118865
aF-0.00013248369035708915
aF-0.69999997753900378
aF-0.59999999300866669
aF-0.70011161981827152
aF-0.69999995773787038
aF0.69950480919877023
asg9
I0
sg10
I0
sba(inode
Node
p127
(dp128
g7
(lp129
F-0.38581189619120826
aF0.89787679268280851
aF0.91194472379818348
aF-0.31363315136136044
aF-0.71312751590743639
aF-0.62845490585453168
aF0.40500140510403987
aF0.86190395482499926
aF-0.79768279765193673
aF0.97741819738233227
aF-0.092128527085809861
aF0.054980898293780965
aF-0.74019062193367458
aF-0.57800225650894999
aF0.032782562906302708
aF-0.40745958805161497
asg9
I0
sg10
I0
sba(inode
Node
p130
(dp131
g7
(lp132
F-0.70571734639696093
aF-0.48817592059759174
aF-0.49747835159964343
aF-0.20462327858436011
aF0.39673332529511363
aF-0.59852168989044174
aF-0.10271416467371422
aF-0.60218673085269625
aF0.39820726759566388
aF-0.89973499519220845
aF0.81155834969226814
aF-0.7958633353836766
aF-0.20221069377577952
aF0.89593974391243714
aF0.10495834299267924
aF0.80204898738713648
asg9
I0
sg10
I0
sba(inode
Node
p133
(dp134
g7
(lp135
F-0.37194595626761501
aF-0.79185010853881332
aF-0.15754420144197315
aF0.068311068336023309
aF1.0456866205663977
aF0.48668276957703593
aF-1.0204707739832959
aF-0.2985235179491052
aF-0.47283559932852154
aF0.96870853988557548
aF0.55172758601873384
aF-1.0154651575028262
aF0.37798240912352998
aF0.66331328564282288
aF0.82917703411183652
aF-0.98494542897059822
asg9
I0
sg10
I0
sba(inode
Node
p136
(dp137
g7
(lp138
F0.1999999999959961
aF-1.0000000000097862
aF0.79999999999466431
aF-0.90000000000000002
aF-3.8710213656039571e-12
aF-0.50000000000533829
aF0.69999999999364748
aF-0.40000000000602137
aF0.49999999999383099
aF0.69999999999586138
aF0.79999999999810512
aF-0.60000000000595866
aF0.99999999999671674
aF0.40000000000000002
aF0.099999999989897989
aF0.69999999999969276
asg9
I0
sg10
I0
sba(inode
Node
p139
(dp140
g7
(lp141
F-0.15585664913570707
aF-0.75152992124039675
aF0.76871590014740943
aF-0.67799694349383743
aF-0.077309319650785913
aF0.74370925326064419
aF-0.59712882334896999
aF0.752949783173951
aF-0.66464985143470345
aF-0.079706920397101089
aF0.25883565176162993
aF-0.81464757320840941
aF0.89312550944559521
aF0.6717066555825113
aF0.86097021214084457
aF0.62081245755216397
asg9
I0
sg10
I0
sba(inode
Node
p142
(dp143
g7
(lp144
F0.4208012512315164
aF0.39727999005031095
aF-0.6319044783872656
aF-0.69266276870935095
aF-0.75042978975263053
aF0.76955888100939973
aF-0.1149709247007665
aF0.32459496835526225
aF-0.14310414362249022
aF0.2018677842263151
aF-0.80490253389559374
aF0.38398687321191705
aF0.16373293993820121
aF-0.71659843896059383
aF-0.61386208916284779
aF-1.0263170590994282
asg9
I0
sg10
I0
sba(inode
Node
p145
(dp146
g7
(lp147
F0.97756255773380718
aF0.76191058721750793
aF-0.52856287206122243
aF-0.38818955241550379
aF-0.20754173928888897
aF-0.32729758626070271
aF-0.68493023279557663
aF-0.53618282097519865
aF-0.84121071612698695
aF-0.69636878463387575
aF-0.14271122386270491
aF-1.1068621029269012
aF-0.49526143055978566
aF0.83222814081939034
aF0.867839135080541
aF-0.41311747480994288
asg9
I0
sg10
I0
sba(inode
Node
p148
(dp149
g7
(lp150
F-0.0916984310131672
aF0.26469574510718358
aF0.58657319412568998
aF-0.21004086048478002
aF-0.58941800292942426
aF-0.72693474572956651
aF0.72964551349789142
aF1.0471692505760346
aF0.54935219888309528
aF-0.96514340340030103
aF-0.91576146740940478
aF0.31562717248290462
aF-0.095495509774110296
aF-0.17756025409968154
aF-0.06215253028033093
aF0.81046402299721554
asg9
I0
sg10
I0
sba(inode
Node
p151
(dp152
g7
(lp153
F-1.080351985596584
aF0.4960033696674862
aF0.74063970031644655
aF0.58960889626970703
aF0.14344952547892378
aF-0.036658220709553616
aF-0.98257174057763785
aF-0.61605320581238765
aF-0.34422761838819427
aF-0.2218629209798223
aF-0.62954425947834425
aF0.86326212243402001
aF0.15723611672722504
aF0.77932059636362827
aF-0.46901686725788566
aF0.39355318514797072
asg9
I0
sg10
I0
sba(inode
Node
p154
(dp155
g7
(lp156
F0.25652278354848551
aF0.6667520323206868
aF-1.0069234472849311
aF-0.33817281716018843
aF-0.065166810590253213
aF0.030226137526980924
aF-0.98281176255038105
aF0.00032132405662150154
aF-0.44058545477612737
aF-0.033808826800150016
aF-0.69401976698869516
aF-0.1147194224153736
aF0.59582742073751493
aF-0.24281199070372955
aF-0.095368565418032764
aF0.096891350041548807
asg9
I0
sg10
I0
sba(inode
Node
p157
(dp158
g7
(lp159
F0.51623540401309409
aF-1.1690589923335921
aF0.66450314734214022
aF-0.064708263765771712
aF-0.87283565495783411
aF0.77701419426360108
aF0.22964442934215401
aF0.75965850235556664
aF-1.0384512356375872
aF0.39115199493017561
aF0.51891728298427986
aF-0.56685113016556288
aF-0.94897764296721898
aF-0.52388159929397549
aF0.22761593577167408
aF0.37811155801248453
asg9
I0
sg10
I0
sba(inode
Node
p160
(dp161
g7
(lp162
F0.20997328619413913
aF0.40035836037402939
aF-1.0859350998821289
aF-0.73590718440018632
aF-0.68568537338721958
aF1.152148500185324
aF-0.32906649514664471
aF0.13757312804864374
aF0.99597359821039966
aF0.19346798932558618
aF-0.69806551744476109
aF-0.73679683907271587
aF0.41975475555575087
aF-0.70992348858724552
aF-0.83108474054420689
aF-0.24410082403534558
asg9
I0
sg10
I0
sba(inode
Node
p163
(dp164
g7
(lp165
F1.02504388454176
aF-0.62291514105279344
aF1.0798157143751301
aF0.79391886882093365
aF0.63333254477127576
aF0.12186148121373726
aF-0.81794520992410868
aF0.97031061271252161
aF0.73143400358771915
aF0.015715224089788066
aF-0.98544128441824774
aF-0.73413567165209392
aF-0.24374911192299403
aF0.15725609852778663
aF0.026367909106696095
aF-0.12749220403562583
asg9
I0
sg10
I0
sba(inode
Node
p166
(dp167
g7
(lp168
F0.98859898492261833
aF0.85830214126203419
aF0.40353955962269134
aF-0.35719199070030266
aF0.83171203031241692
aF-0.37676648471477786
aF-0.20066197626959761
aF0.64786942056207619
aF-0.94016661570037685
aF-0.19790950628346546
aF0.36508597861460507
aF-0.1944802487684246
aF-0.087625101683183479
aF-0.59479919519360369
aF0.4026711034984119
aF-0.34779714906679637
asg9
I0
sg10
I0
sba(inode
Node
p169
(dp170
g7
(lp171
F-0.23447855706161597
aF0.48931968149909466
aF0.5370554028307899
aF0.55038231196092602
aF0.13826036649717938
aF0.18432053081940564
aF-0.97431284427288789
aF0.16921012990854589
aF-1.0376689170800466
aF0.49689952938393639
aF0.89390582408462937
aF-0.35914785388610415
aF1.0393022970035068
aF0.43712601967334852
aF-0.087888325359824229
aF-0.57354685239194003
asg9
I0
sg10
I0
sba(inode
Node
p172
(dp173
g7
(lp174
F0.40229105347146216
aF-0.29972927483668821
aF-0.88491038556316903
aF0.42175631280779002
aF-0.070948820199526516
aF0.71977651761345296
aF0.81536904153417811
aF-0.6319319661784093
aF-0.91612782100624746
aF-1.0552182186279815
aF0.589323904825659
aF-0.24968631342560862
aF-0.73137532421359452
aF0.078984648550824155
aF0.43351947129200918
aF1.0117571665625025
asg9
I0
sg10
I0
sba(inode
Node
p175
(dp176
g7
(lp177
F-0.54666182308684275
aF0.66053776541741849
aF-0.33417238723818316
aF0.89595544956778861
aF-0.90533511747262674
aF-0.96842712092163319
aF0.5128639258026213
aF-0.028487786621688278
aF-0.68487926742222893
aF0.53263327424079254
aF-0.42814031644394257
aF0.31491204462570382
aF0.95776050258289214
aF-0.63989502716755597
aF-0.025746469567447881
aF0.4135709337712602
asg9
I0
sg10
I0
sba(inode
Node
p178
(dp179
g7
(lp180
F-0.53758045594601178
aF-0.063965436020038915
aF-0.4875175675711047
aF-0.090414086824893977
aF0.46457984063050262
aF-0.15702710479216922
aF0.50334012708661613
aF-0.48680702966699829
aF0.67257825395480375
aF-0.161230928249117
aF0.31149057834334121
aF0.69308820526492254
aF-0.74192041132105491
aF-0.93617009061519185
aF-0.68922901442797557
aF0.7961147039787263
asg9
I0
sg10
I0
sba(inode
Node
p181
(dp182
g7
(lp183
F-0.29962617743563935
aF0.10334081661204497
aF0.3037048543661362
aF-0.29999999999998955
aF-0.19955817188349864
aF0.40007363811240887
aF0.10000038074508252
aF-0.89999999985562562
aF-0.99922222545373263
aF-0.69915255265889031
aF-0.098406885336450756
aF0.0024567576944237277
aF-0.69633205423461242
aF0.70340249004996325
aF0.20326963236926832
aF-0.59947733969098971
asg9
I0
sg10
I0
sba(inode
Node
p184
(dp185
g7
(lp186
F0.51138678645395619
aF-0.0050940659686949602
aF-0.4407542751955319
aF-0.8022346464565181
aF-0.70860636547351918
aF-0.61447593693010527
aF-0.8453940046252636
aF0.46432787632018258
aF-0.17241038592495547
aF0.52455140207281559
aF0.10361472855822003
aF-0.883363711296559
aF-0.011297015490798005
aF0.61703518924466272
aF-0.9792255490502626
aF0.69352924360210422
asg9
I0
sg10
I0
sba(inode
Node
p187
(dp188
g7
(lp189
F-0.10000000000000001
aF1
aF0.40000000000000002
aF0.90000000000000002
aF0.59999999999999998
aF0.90000000000000002
aF-0.29999999999999999
aF-0.90000000000000002
aF0.59999999999999998
aF0.5
aF-0.69999999999999996
aF1
aF0.69999999999999996
aF0.69999999999999996
aF0.40000000000000002
aF0.90000000000000002
asg9
I0
sg10
I0
sba(inode
Node
p190
(dp191
g7
(lp192
F-1.0323267772475293
aF0.61702232525274936
aF-0.61205756219666685
aF-1.0171629366394497
aF-0.54726149126969481
aF0.24506189280858218
aF-0.46908603548478117
aF-0.86745150594436871
aF-0.76487179921442239
aF0.55010782798497482
aF-0.067961282915328811
aF-0.66173827866563439
aF0.90480268316132029
aF-0.35468108067239962
aF0.88303690042563021
aF0.66112703405518669
asg9
I0
sg10
I0
sba(inode
Node
p193
(dp194
g7
(lp195
F-0.075398089536268906
aF0.54554583675673696
aF0.45554242557438418
aF-0.18567508664118945
aF0.7656982944732853
aF0.36514038995067516
aF-0.96514700310056267
aF-0.31065629798226568
aF0.48381691624301099
aF0.90183380904668087
aF-0.78874008002560314
aF-0.64273281775326918
aF-0.82720314577586496
aF1.0660081594734616
aF-0.59938867265817608
aF0.50953426222010323
asg9
I0
sg10
I0
sba(inode
Node
p196
(dp197
g7
(lp198
F-0.10000000000000001
aF-0.59999999999999998
aF-0.80000000000000004
aF-0.29999999999999999
aF0.80000000000000004
aF0.40000000000000002
aF-0.59999999999999998
aF-0.80000000000000004
aF-0.90000000000000002
aF-0.59999999999999998
aF-1
aF-0.40000000000000002
aF-1
aF0.90000000000000002
aF0.10000000000000001
aF4.5702167783941598e-26
asg9
I0
sg10
I0
sba(inode
Node
p199
(dp200
g7
(lp201
F0.69999999931512513
aF0.49999999979437088
aF0.099999999672453058
aF3.7764622004728306e-11
aF0.59999999909357149
aF-0.90000000088676824
aF0.49999999948585372
aF-0.60000000083403082
aF0.39999999906459394
aF0.59999999981691066
aF0.099999999737801215
aF0.89999999990905921
aF0.90000000001887681
aF-0.40000000027540544
aF0.20000000002328094
aF-0.60000000060671888
asg9
I0
sg10
I0
sba(inode
Node
p202
(dp203
g7
(lp204
F0.29878353503474059
aF-1.014635226115955
aF-0.57355729774452824
aF0.56043917844793711
aF0.26074670698822949
aF-1.085353958516545
aF1.1312611086147908
aF-0.26216704432754562
aF1.0284568953288387
aF-1.0371011863734287
aF1.0656066403602047
aF-0.6874715218488896
aF-0.26885040436883478
aF0.46029409842038277
aF-0.69733308278794348
aF-0.49319189749685421
asg9
I0
sg10
I0
sba(inode
Node
p205
(dp206
g7
(lp207
F0.90138520058430638
aF0.65283495075247722
aF0.88157239538205046
aF-0.29387767861696934
aF-0.54394552713266187
aF-0.58854987605826492
aF0.80445286216894296
aF-0.071216042968328369
aF-0.71887578376816275
aF0.31574640666848397
aF-0.5136147785101971
aF0.6462144809237711
aF-0.74124124873659125
aF-0.03269539239446357
aF0.58003258691998327
aF-0.49537838561822017
asg9
I0
sg10
I0
sba(inode
Node
p208
(dp209
g7
(lp210
F1.1140386951102375
aF0.2617707229973788
aF-0.80568211550848601
aF0.48588270639189374
aF0.77265136864483952
aF-0.60471057316448995
aF1.1744437817994919
aF-0.75427978013025454
aF-0.45189966738378967
aF-1.0146836834856139
aF0.7652887720500271
aF0.018251030172091696
aF-0.091650976928332059
aF0.3853318733794785
aF0.20891126371658103
aF-0.27261488674722339
asg9
I0
sg10
I0
sba(inode
Node
p211
(dp212
g7
(lp213
F-0.69790660157782569
aF-0.39645467177204946
aF0.051689959429599815
aF0.13965460378463615
aF-0.15144694661918737
aF0.17973019163008311
aF-0.9474669066925665
aF0.72380792045787157
aF0.78250038699423929
aF-0.27549173084129513
aF0.93375646386132538
aF-0.2496665141019391
aF-0.058537002449646922
aF0.18097616534868796
aF-0.86934650978920003
aF0.12825351109930108
asg9
I0
sg10
I0
sba(inode
Node
p214
(dp215
g7
(lp216
F0.40000000000000002
aF0.80000000000000004
aF0.10000000000000001
aF0.40000000000000002
aF0.20000000000000001
aF0.59999999999999998
aF0.5
aF-0.10000000000000001
aF0.69999999999999996
aF0.69999999999999996
aF-0.10000000000000001
aF-0.40000000000000002
aF-0.69999999999999996
aF0.29999999999999999
aF0.29999999999999999
aF1
asg9
I0
sg10
I0
sba(inode
Node
p217
(dp218
g7
(lp219
F-0.29999999999999999
aF-1
aF-0.29999999999999999
aF0.20000000000000001
aF-0.90000000000000002
aF0.40000000000000002
aF-0.59999999999999998
aF0.20000000000000001
aF-0.29999999999999999
aF-0.80000000000000004
aF0.69999999999999996
aF-1
aF-0.90000000000000002
aF-0.90000000000000002
aF-0.40000000000000002
aF-0.5
asg9
I0
sg10
I0
sba(inode
Node
p220
(dp221
g7
(lp222
F-0.82059211152685074
aF-0.088721538338731532
aF-0.54708259693873362
aF-0.70001788757468808
aF-0.011711025469866618
aF-1.0193767027435008
aF-0.14863913603998252
aF0.76488997358950395
aF-0.51422020419188363
aF0.15127380469108992
aF0.44692659809053487
aF-0.36114642798673224
aF-0.75896296909889704
aF0.56738501572609368
aF0.7164514825911259
aF-0.12247011860706007
asg9
I0
sg10
I0
sba(inode
Node
p223
(dp224
g7
(lp225
F0.33260473636421389
aF0.13831103138736833
aF-1.4965665563262691
aF0.5869441953021538
aF-0.18131071191392864
aF-0.43918080595073955
aF0.066639040100145527
aF-0.90202148566569162
aF0.76984057545038143
aF-0.53032872794617159
aF0.24151068568982986
aF0.97301904988494226
aF0.0060244162722564356
aF-0.086213328867926375
aF0.94316771965015922
aF1.1293670571879555
asg9
I0
sg10
I0
sba(inode
Node
p226
(dp227
g7
(lp228
F1.0377391099510777e-18
aF0.20000000000000001
aF-0.90000000000000002
aF-0.90000000000000002
aF7.6103652959906075e-19
aF-0.29999999999999999
aF-0.40000000000000002
aF-0.59999999999999998
aF-0.20000000000000001
aF1.0550336787612868e-18
aF-0.80000000000000004
aF-0.59999999999999998
aF-0.69999999999999996
aF1
aF-0.5
aF0.20000000000000001
asg9
I0
sg10
I0
sba(inode
Node
p229
(dp230
g7
(lp231
F0.052895230520057249
aF-0.034150612862730662
aF0.34322617450646298
aF-0.15343032718409313
aF0.25588732065158737
aF0.54448105123849022
aF-0.0022587821476476627
aF0.071979925842789852
aF-1.148253211252747
aF0.67855180172940233
aF0.70570424950282262
aF-0.58984355235858488
aF-0.38060694300123532
aF-0.17709742247215787
aF-0.9297746510635676
aF-0.38018185566068563
asg9
I0
sg10
I0
sba(inode
Node
p232
(dp233
g7
(lp234
F0.59999999999999998
aF0.69999999999999996
aF-0.80000000000000004
aF0.80000000000000004
aF0.80000000000000004
aF0.40000000000000002
aF-0.40000000000000002
aF0.59999999999999998
aF0.69999999999999996
aF0.69999999999999996
aF0.40000000000000002
aF1
aF0.20000000000000001
aF0.29999999999999999
aF0.80000000000000004
aF0.80000000000000004
asg9
I0
sg10
I0
sba(inode
Node
p235
(dp236
g7
(lp237
F0.53514233047450066
aF0.17867682329338816
aF-0.64894173804309263
aF1.5111306070844577
aF-0.60327478965253034
aF-0.058184430864714753
aF-0.072132810273524375
aF0.29181444559118991
aF0.06764083620594484
aF0.21293883949803119
aF-0.82443206521627244
aF-0.90511062992781155
aF0.24426808070561687
aF0.34065284057411693
aF0.10412877273995887
aF-0.14227736104690944
asg9
I0
sg10
I0
sba(inode
Node
p238
(dp239
g7
(lp240
F-0.87854711198623081
aF1.0283111241331389
aF-0.40260581290204744
aF-0.91306628851106075
aF0.31247237504125558
aF0.50414086905140931
aF0.15996690749373632
aF-0.32917044894503666
aF-0.083157344981043463
aF-0.99046276688838375
aF-0.4004699622832732
aF0.75920394009924708
aF-0.32084556581014317
aF0.35929068076723569
aF-0.3798707355282771
aF0.76104165750583275
asg9
I0
sg10
I0
sba(inode
Node
p241
(dp242
g7
(lp243
F-0.80565898756479393
aF0.94117881090939393
aF-0.34849773421983227
aF-0.3490712726046441
aF-0.3441322679614861
aF0.047367131263362984
aF-1.1199551741916991
aF-0.23534937371743525
aF0.59876026690150186
aF-0.46618780520978814
aF0.62935783842831106
aF-0.22423186609987164
aF-0.023393504900913353
aF0.0035389174367241824
aF-0.055369501943521533
aF0.9911161374361086
asg9
I0
sg10
I0
sba(inode
Node
p244
(dp245
g7
(lp246
F-0.29276555980800323
aF-0.99907526677366654
aF-0.39743735456525814
aF0.60813697481619455
aF0.10537740448245006
aF0.90484439562674035
aF0.80514053463313418
aF-0.99583532646008655
aF-0.6964233878965882
aF-0.89733541374354475
aF0.10227695764642294
aF-0.89865309905570867
aF0.80506014520883429
aF0.10419443079165973
aF0.0046865557015244724
aF-0.69438468155099919
asg9
I0
sg10
I0
sba(inode
Node
p247
(dp248
g7
(lp249
F-0.90188045673282446
aF0.48881527941132491
aF-1.006782543538449
aF0.29999999901392932
aF-0.30368647191299564
aF-0.90745759363826162
aF-0.0094814293236474469
aF0.89294835200400802
aF0.89165727450857202
aF-0.30381993315608097
aF-0.6048440084710266
aF0.78768098912221429
aF-0.70481438475326985
aF-0.80371855723307806
aF-0.40798758600039881
aF0.39804013175151554
asg9
I0
sg10
I0
sba(inode
Node
p250
(dp251
g7
(lp252
F-0.29236002511588211
aF0.10805700115270916
aF0.69515052405669475
aF0.065075086329626858
aF-0.50489284574240167
aF0.88785329103915955
aF-0.68063235007667366
aF1.0514766133338693
aF-1.0314476243979995
aF0.36680499936197264
aF-0.22368673169637895
aF-0.85906314629715608
aF0.60879576013315018
aF-0.79192729428067388
aF0.87597562317935196
aF0.63067941574073771
asg9
I0
sg10
I0
sba(inode
Node
p253
(dp254
g7
(lp255
F0.23531893803246731
aF-0.024490456151388788
aF0.29146294630481967
aF-0.68229149769522757
aF0.88487213059156622
aF-0.67172698545920007
aF0.70132085243181497
aF0.47886289068674548
aF0.75426175198357359
aF-0.12121199270569387
aF0.56229047893518291
aF-0.32913877027986843
aF0.42351474615535273
aF0.058369993623168762
aF-0.16069329131981661
aF-0.9291141287368585
asg9
I0
sg10
I0
sba(inode
Node
p256
(dp257
g7
(lp258
F-0.80000000000000004
aF0.40000000000000002
aF-0.29999999999999999
aF-0.80000000000000004
aF1
aF-0.29999999999999999
aF-0.5
aF0.40000000000000002
aF-1
aF-0.10000000000000001
aF-0.40000000000000002
aF-0.90000000000000002
aF-0.20000000000000001
aF-0.80000000000000004
aF-0.90000000000000002
aF-0.80000000000000004
asg9
I0
sg10
I0
sba(inode
Node
p259
(dp260
g7
(lp261
F0.80000000000039084
aF0.599999999999839
aF0.90000000000000002
aF0.69999999999990892
aF-0.49999999999994116
aF0.70000000000024076
aF0.60000000000019671
aF0.60000000000022002
aF0.20000000000035589
aF-0.89999999999976132
aF0.49999999999990369
aF-0.30000000000001925
aF-0.49999999999989653
aF0.99999999999996436
aF1.0000000000000444
aF-0.99999999999981604
asg9
I0
sg10
I0
sba(inode
Node
p262
(dp263
g7
(lp264
F0.39927851970503514
aF0.89951915176444064
aF0.09955271847443431
aF0.99983151013520921
aF-0.1006979242837998
aF-0.40089000691694526
aF0.89987992541669437
aF0.59929022419340094
aF-0.40093803986241872
aF0.99985568802788638
aF1.000000196736831
aF0.69927819211329056
aF-0.0010466423168105231
aF-0.90120262891801239
aF0.3995067218523588
aF-0.50064933161769964
asg9
I0
sg10
I0
sba(inode
Node
p265
(dp266
g7
(lp267
F-0.1626172313538371
aF0.31246092288205601
aF0.70766845194161532
aF0.49999999999999994
aF0.90647967989866518
aF0.0099687383056410277
aF0.31694685511959392
aF0.51196248596677019
aF0.0019937476611256184
aF-0.16610628976080985
aF0.22043591352657316
aF0.89999999999999858
aF0.20199374766112893
aF0.50548280606810347
aF-0.085046892541532332
aF-0.56810003742194248
asg9
I0
sg10
I0
sba(inode
Node
p268
(dp269
g7
(lp270
F0.20136356863172292
aF-1.0192921683135758
aF0.10241093576483026
aF0.51762968154162903
aF0.17742922778938242
aF-0.74332262897239543
aF0.269695504610167
aF0.40610493308220674
aF0.16138167670424541
aF-0.13988807154121438
aF-0.15328411863060393
aF0.58283601651337569
aF-0.5990701488747886
aF0.12878389064333687
aF0.77167077420327757
aF0.31532100199058449
asg9
I0
sg10
I0
sba(inode
Node
p271
(dp272
g7
(lp273
F-0.031809217449211294
aF-0.20712345211040564
aF0.63861203849964066
aF-0.49633169744538752
aF0.71380185824270581
aF0.46961709823183517
aF-0.59656663239187258
aF0.097809494473686115
aF0.97843647452959015
aF0.71365495781465305
aF-0.49161217256644008
aF-1.1370022412395022
aF-1.0037059559792165
aF-0.32713192660755547
aF0.86669058619333483
aF-0.15214382902477991
asg9
I0
sg10
I0
sba(inode
Node
p274
(dp275
g7
(lp276
F9.2556439562480497e-10
aF-0.69999999629774201
aF-0.099999997840334282
aF0.29999999999999999
aF-0.40000000000000002
aF-0.40000000000000002
aF0.70000000078672975
aF-0.59999999999999998
aF-0.90000000000000002
aF-0.80000000000000004
aF0.4000000021750762
aF-0.29999999713075021
aF-0.79999999750097683
aF0.80000000166601504
aF0.80000000310064101
aF-0.99999999962977459
asg9
I0
sg10
I0
sba(inode
Node
p277
(dp278
g7
(lp279
F0.80029500709071777
aF-0.99653066106420807
aF0.10153264629563122
aF0.89998368577370291
aF0.60065008894293959
aF1.0012133789635262
aF0.098954618735335481
aF1.0010918021924609
aF0.099815705634330426
aF0.50258343608732647
aF-0.6991928438664875
aF0.20310831873821497
aF0.0023416174800605836
aF-0.19796065130510712
aF0.20276527124721366
aF-0.3973267214133151
asg9
I0
sg10
I0
sba(inode
Node
p280
(dp281
g7
(lp282
F0.82031691762399805
aF0.53872845924644042
aF0.25311905919532074
aF-0.9773390519619799
aF-0.16317975185877387
aF-1.0722120657018339
aF-0.96676026951225591
aF-0.59032918474795448
aF0.95755812791516737
aF0.67211824113235019
aF0.70138309914576313
aF0.10662583587548775
aF-0.026888670472792961
aF-0.5351972279750552
aF0.20985500080254205
aF-0.32260239885606534
asg9
I0
sg10
I0
sba(inode
Node
p283
(dp284
g7
(lp285
F-0.47543915994401864
aF0.25260487639266505
aF0.91016909170061022
aF-0.20359618827274578
aF0.59126982496973313
aF0.51493573807031645
aF-0.94723968810924941
aF0.59179115459647891
aF0.57903547114021714
aF-0.60298526540739039
aF-0.58736526371414388
aF-0.23567982081353978
aF-0.53966827540539475
aF-0.01930144529240934
aF-0.33649383522801585
aF-0.039326061811692889
asg9
I0
sg10
I0
sba(inode
Node
p286
(dp287
g7
(lp288
F-0.19994613289657442
aF-0.79987428675979511
aF0.80000000436625807
aF0.90000000000000002
aF-0.099999999747192606
aF-0.89999999900454963
aF0.50000898139502992
aF0.50000000088177077
aF0.40001616340055518
aF0.90003052407991124
aF-0.099820422781918078
aF0.10008800058956376
aF0.60005387251210818
aF0.60004847987443055
aF8.6207151143226227e-05
aF0.40008620058038702
asg9
I0
sg10
I0
sba(inode
Node
p289
(dp290
g7
(lp291
F0.19914668109879943
aF0.21632923713438734
aF0.30967496074004686
aF-0.70095306390935719
aF0.29951416227446043
aF0.89949820766065103
aF0.9997007661908166
aF-0.90019288723696467
aF-0.096670340285420944
aF0.39970608701666588
aF0.40947765638980987
aF-0.38516638933700442
aF-0.98398483610355436
aF0.10715745636192572
aF0.7163032812197786
aF0.50058297114468353
asg9
I0
sg10
I0
sba(inode
Node
p292
(dp293
g7
(lp294
F-0.35490305997305788
aF0.565617998504098
aF-1.2613230019862514
aF-0.034575103459567352
aF-0.27748072554696884
aF0.72574306940754718
aF0.94532477645991964
aF-0.098027803003056593
aF-0.76842072767317993
aF1.0101018438941811
aF0.093072890225875782
aF0.59734980903120649
aF0.30527715450551091
aF0.0054254877958488795
aF0.8300510259494317
aF-0.012697802124273384
asg9
I0
sg10
I0
sba(inode
Node
p295
(dp296
g7
(lp297
F-0.89853078716000478
aF0.60875620676192355
aF-0.10052918713274203
aF-1.1076253045837212
aF-0.58261708133265744
aF0.045141079250243001
aF0.2719313247921622
aF0.80732416999812939
aF0.61614694030500228
aF0.9117106854105399
aF-0.85769964088704165
aF-0.77697883276911495
aF0.2620493515884238
aF0.5975878158374357
aF-1.1428785122937983
aF1.0197622402335456
asg9
I0
sg10
I0
sba(inode
Node
p298
(dp299
g7
(lp300
F-0.74311187210902108
aF0.089556138766137314
aF0.078953927989862713
aF0.94786434456386492
aF0.16174011874493247
aF0.47615865728943568
aF-0.030461813787586393
aF-0.4258229739961778
aF-0.3215363646543889
aF-0.33487136626224456
aF0.48870225763608938
aF0.18867147882854859
aF-0.80395696823184493
aF-0.32437926607541445
aF-1.001791043224167
aF-0.32946607554825458
asg9
I0
sg10
I0
sba(inode
Node
p301
(dp302
g7
(lp303
F0.48032679537884593
aF-0.86694408036311577
aF0.17793260389904625
aF-0.68968695473688912
aF1.0503379065992446
aF-0.089398195899109231
aF0.67336392900085196
aF-0.11567376845480576
aF-0.10022324631789566
aF-0.57555255654830562
aF0.16075489759340394
aF0.75224582873938017
aF0.36011294421021328
aF0.84905765670971478
aF-1.1072645874717926
aF-0.0059155477369073747
asg9
I0
sg10
I0
sba(inode
Node
p304
(dp305
g7
(lp306
F-1.0689243321606283
aF0.04386128496742752
aF-1.0076448697339291
aF-0.22905590025092279
aF0.80314470552499717
aF0.33252334551281859
aF-0.40057777220431173
aF-0.5221668043902119
aF0.065261498485373284
aF0.26800327059634915
aF0.96329738294176026
aF0.93272697036300056
aF-0.35642973131431072
aF-0.13293990610198239
aF-1.0114297021613696
aF0.021997271640700929
asg9
I0
sg10
I0
sba(inode
Node
p307
(dp308
g7
(lp309
F0.70000269862669529
aF-0.19937306112414147
aF0.40023218280388639
aF9.0231263589161072e-12
aF1.0000006093963512
aF0.60000087058171891
aF0.10032424412537394
aF-0.69992471247617283
aF0.5000000069974665
aF-0.69976515556730923
aF0.10019777540182857
aF-0.099734993388895354
aF-0.29964384383367954
aF0.80000043530817533
aF0.50054429554998747
aF-0.099997407183675294
asg9
I0
sg10
I0
sba(inode
Node
p310
(dp311
g7
(lp312
F0.39029777031806351
aF-0.35355780516160118
aF0.20526938870970171
aF-0.11522392866975306
aF-0.78765058675427202
aF-0.075092505389449116
aF-0.16277343196801439
aF-0.56156448602761566
aF-0.40252438789674821
aF0.17307158855949384
aF0.86158359879301183
aF0.0033002757842878479
aF-0.56882942952375914
aF0.090466770415611325
aF0.62709555692731167
aF-0.28228640617765854
asg9
I0
sg10
I0
sbasb.