(ineural_network
Neural_Network
p1
(dp2
S'output_nodes'
p3
(lp4
(inode
Node
p5
(dp6
S'weights'
p7
(lp8
F-0.13784813187223749
aF-0.20131505328520144
aF0.37968756828007039
aF-1.0222360263896642
aF-0.305198055916519
aF0.81705108665724346
aF0.78602999380224581
aF0.089382758829884182
aF0.54095184605056967
aF0.5941263299183972
aF0.095141240909829644
aF-1.1104227264029594
aF0.43975031664651548
aF0.5528902978847855
aF0.51296501973415021
aF-0.23665730096403859
aF-0.28235602703123441
aF-0.18981552167800933
aF-0.30271674616233607
aF-0.57935528745563447
aF0.32313702453243315
aF-0.39738735968971245
aF0.17410104357496972
aF-0.67491345075520437
aF-0.4554897515571627
aF0.77487230797234607
aF0.10000000000000001
aF0.40612041239821783
aF-0.58280118291479477
aF0.88944712274499282
aF-0.44812696529082324
aF-0.89665180035425596
aF-0.35994508542809123
aF-0.36798314518833447
aF-0.95682756951063053
aF-0.10362726185808571
aF0.58957703740435219
aF-0.23350846558405358
aF-0.20524725650157816
aF-0.80000000000000004
aF-0.0043188683966872421
aF0.29999999999999999
aF-0.11162806832595908
aF-0.31531920402939756
aF-0.083164735956375496
aF-0.39301523191869475
aF-0.35812332510639772
aF-0.68547648022166185
aF0.69528395436561896
aF-0.31262134713843781
aF-0.47830018409143155
aF-0.88025030328669884
aF-0.18760361489577893
aF0.099314502042561009
aF-0.075439163991849509
aF0.57150009250165379
aF-0.41042270378487283
aF0.35903897712909238
aF-0.26776244478730049
aF-0.96163765329081619
aF-0.10778629578332646
aF-0.47817295088862977
aF0.21543274031600887
aF-0.20303302982065941
aF0.11717320317275065
aF-0.38859660142149421
aF-0.23545734673633059
aF-0.5
aF-0.33058865987625424
aF-0.11042367839784742
aF0.17669535467349046
aF0.20783296096727963
aF-0.018719262290929697
aF0.8262330940328827
aF0.8799978166285034
aF-0.062694467856654987
aF-0.34399472211326287
aF0.50806194270227056
aF-1.9954280357133574
aF-0.19228375081721069
aF0.11600697904496629
aF-0.1048649418810763
aF0.19742928049062877
aF-0.71042270378489547
aF0.59788174055319365
aF0.30444066063315739
aF0.14266578546521025
aF0.21383562010772056
aF0.89154772355223788
aF0.17124810753593364
aF0.56741514868124632
aF-0.57162309529798205
aF-0.22544972318372705
aF1.5363020875257802
aF0.19731852334736566
aF-0.12977178011945084
aF0.49860885290497686
aF0.62880608588127385
aF0.13029294351215193
aF0.10000000000000001
asS'calculated_value'
p9
I0
sS'delta'
p10
I0
sbasS'hidden_nodes'
p11
(lp12
(inode
Node
p13
(dp14
g7
(lp15
F-0.42999482243788312
aF0.6307023477003364
aF-0.27795260236207509
aF0.84616424525825529
aF0.94043578052580856
aF-0.68323905019866726
aF-1.2027979347885764
aF-0.72396520905294537
aF0.77676807706050133
aF-0.6049567058489822
aF0.86730791045385502
aF0.42868004337654897
aF-0.83773893662632648
aF0.20532030797112813
aF0.51469423012107129
aF0.49364951870614171
asg9
I0
sg10
I0
sba(inode
Node
p16
(dp17
g7
(lp18
F0.33441674402074634
aF-0.95250418621897925
aF0.40114132137309039
aF0.021745405499824601
aF-0.0020105294936455611
aF-0.0060827362363853679
aF-0.70615887056551152
aF-0.67255176012920059
aF0.49735815635851999
aF-0.80811052295536612
aF1.0282869626634275
aF-0.79203112639902684
aF-1.0007145333981193
aF0.56316165895522141
aF0.34086930857769709
aF-0.84850874070333471
asg9
I0
sg10
I0
sba(inode
Node
p19
(dp20
g7
(lp21
F-0.40630808678996277
aF0.26406007131964776
aF0.17677783227530994
aF-0.90255213503478504
aF-0.70103788261260247
aF-0.30075827208509148
aF-0.60506459580662098
aF-0.70162563223876495
aF-0.70511219211226284
aF-0.40791556779166083
aF-0.52596534135170492
aF-0.41952027889788707
aF0.37546007957918298
aF-0.70467132614207495
aF0.26083629625957361
aF0.6917584176942162
asg9
I0
sg10
I0
sba(inode
Node
p22
(dp23
g7
(lp24
F-0.89315441837659326
aF0.51601352301849324
aF0.39540589239316937
aF0.20285042830248812
aF0.16106234790252719
aF0.20012981295554785
aF-0.78256433378204282
aF-0.92256029221147229
aF-0.27662915046551889
aF-0.89367128217916714
aF0.16429199327688421
aF0.54808694974686201
aF-0.4367010590006013
aF0.70328843839862054
aF-0.87319172490788988
aF0.65975890546963167
asg9
I0
sg10
I0
sba(inode
Node
p25
(dp26
g7
(lp27
F0.56692418416505175
aF0.55698195858583988
aF-0.42053553775835234
aF0.51786237524342438
aF-1.0028670485791433
aF0.5925958254246857
aF-0.71137864851442967
aF-0.60855541412335346
aF-0.98841663336264307
aF-0.044620666301602788
aF0.10090655525421473
aF-0.23213128645951936
aF-0.2588333235830928
aF0.96056874768594247
aF-0.45007527244537554
aF-0.64668116593227098
asg9
I0
sg10
I0
sba(inode
Node
p28
(dp29
g7
(lp30
F0.80227783396278529
aF-1.0957775923022552
aF-0.10113122839371799
aF1.3620912323828254
aF0.58875418487890452
aF0.2067848036419484
aF0.92475816252946863
aF-0.65862587279190854
aF-0.037086855870445114
aF-0.75471850703315291
aF-0.76356475831642789
aF-0.052700531353726057
aF-0.41608198246500411
aF-0.3321683404264329
aF0.31817677024236013
aF0.94826723626191267
asg9
I0
sg10
I0
sba(inode
Node
p31
(dp32
g7
(lp33
F1.0072274444037064
aF0.70757580886630145
aF0.32290000739404351
aF-0.50636622279348553
aF1.0074368008110588
aF0.51083633624134595
aF-0.29167417501892218
aF-0.98213347924793337
aF0.40151776326602745
aF-0.98627963120157647
aF-0.39473383850501964
aF-0.89808813088974304
aF0.80491489975549446
aF0.59512287138531816
aF1.0050180698757767
aF0.89692849601432678
asg9
I0
sg10
I0
sba(inode
Node
p34
(dp35
g7
(lp36
F-1.0033001319454382
aF-0.60335262987314409
aF0.69438015383932283
aF-0.10223859524774365
aF-1.001030666959555
aF-0.20124978416487746
aF-0.30203823496011339
aF-0.90110485376159466
aF-0.80307698525844162
aF-0.70121499576764301
aF-1.0027330797368372
aF0.69554597100596716
aF0.39314542122167789
aF0.89392000749842782
aF-0.90453181371469904
aF0.59483182018997049
asg9
I0
sg10
I0
sba(inode
Node
p37
(dp38
g7
(lp39
F-0.78304105986920247
aF0.1400589813773214
aF-0.42619957426720312
aF-1.0003762139093935
aF-1.0842132738055055
aF0.60000099377917415
aF0.095397174514935484
aF-0.38885559343240778
aF-0.27946300946941738
aF0.065942375544453743
aF-0.89750749872007862
aF0.25328050310325234
aF0.64078550740740647
aF0.44691678458614048
aF-0.52166457772209041
aF-0.0025476134395851797
asg9
I0
sg10
I0
sba(inode
Node
p40
(dp41
g7
(lp42
F0.77885691948821989
aF-0.80776096795685748
aF-0.33672938410210451
aF0.45129500367852909
aF-0.94739337984631478
aF0.37262541131819155
aF0.036443270471552165
aF0.33399128846217974
aF0.70493939226731017
aF0.51123282015876959
aF0.65374681747865715
aF0.32718113469503501
aF-0.42997061309936691
aF0.94993659055498236
aF-0.6690318588661498
aF-0.93787224694870253
asg9
I0
sg10
I0
sba(inode
Node
p43
(dp44
g7
(lp45
F1.0050733055258476
aF-0.62013447574843972
aF-0.12843209283790835
aF0.75468305615304521
aF-0.51958479104967159
aF-0.43892703286188506
aF0.51454647183775881
aF-0.35822486584492491
aF-0.69448914123871142
aF0.14301532073656001
aF0.86942303495788043
aF-0.14770311902980915
aF0.28273048586755545
aF0.2106816301787286
aF0.92462654924072807
aF-0.22761189517095554
asg9
I0
sg10
I0
sba(inode
Node
p46
(dp47
g7
(lp48
F0.39999767026250044
aF0.69999999786491329
aF-0.90000122397968751
aF0.09999769710200497
aF0.89999811777971028
aF-0.40000231483982063
aF0.19999848528846717
aF-0.10000224067879135
aF-0.30000225869365132
aF0.19999850271754691
aF0.89999967941621462
aF-0.20000078831872981
aF0.99999982362529394
aF-0.40000186711423835
aF0.69999979032876991
aF0.29999982295784516
asg9
I0
sg10
I0
sba(inode
Node
p49
(dp50
g7
(lp51
F-0.86037393034769694
aF-0.45940472549829253
aF0.41647085964276398
aF0.36621317987391483
aF0.11386877755628028
aF-0.020635496188651938
aF0.27423640120282611
aF-0.69673986398797927
aF-0.23700738385221179
aF1.0211116603255923
aF0.47021623919837935
aF-0.24755972162095682
aF0.78341429077029789
aF0.6909970027822574
aF0.3190401960346001
aF0.88462407375723762
asg9
I0
sg10
I0
sba(inode
Node
p52
(dp53
g7
(lp54
F0.013652294161205123
aF-0.10209727943283871
aF0.1445194723107496
aF-0.60274542755063298
aF0.45168622055020596
aF-0.74526313425488366
aF-0.26323288402647133
aF0.39863093980036529
aF0.59538698642998344
aF-0.61473321327812558
aF-0.35108112159257698
aF0.22639769163964354
aF-0.20424041054803307
aF-0.51825478359890009
aF0.098519349109698826
aF-0.77330659910242794
asg9
I0
sg10
I0
sba(inode
Node
p55
(dp56
g7
(lp57
F-0.58928757651982266
aF0.68780804800752315
aF-0.21495797513025316
aF-0.34476417342179805
aF0.69569105049457269
aF0.55354290852136001
aF0.57497938444144037
aF-0.010607485820257327
aF0.16721594244627119
aF-0.15259703118450635
aF0.012750596065611408
aF-1.0209044554751776
aF-0.16411328600063987
aF0.34521634556276426
aF0.62698971457190156
aF0.30623492396617052
asg9
I0
sg10
I0
sba(inode
Node
p58
(dp59
g7
(lp60
F0.99211531635464034
aF0.83714313755650338
aF0.3071064872017269
aF-0.92444670584595723
aF-0.14045142584949499
aF0.96417424385555461
aF0.4636671845767355
aF-0.62733356965554155
aF-0.94564896946547972
aF0.65456638725223293
aF0.76905659723051067
aF-0.1201337246658972
aF0.013725413120030654
aF-0.75709327505682522
aF0.86210790072642629
aF0.2214359050211383
asg9
I0
sg10
I0
sba(inode
Node
p61
(dp62
g7
(lp63
F0.85995512238458549
aF0.65855509192549844
aF-0.99414027283508755
aF-0.26873961626730691
aF0.88237595937835855
aF0.45805945751308413
aF-1.0330715066942324
aF-0.35672888923063867
aF0.0053078309016206318
aF1.1256398462254305
aF-0.36555858503967109
aF-0.12874078759342281
aF0.48750378754112073
aF0.79275724449301244
aF-1.0358786502836732
aF-0.21288336276607345
asg9
I0
sg10
I0
sba(inode
Node
p64
(dp65
g7
(lp66
F0.05175216011283483
aF-0.68980975019015367
aF0.053115495658701176
aF0.48242082224441746
aF0.82851949520244539
aF1.0936160530208892
aF-0.021585464061620756
aF-0.35839243105233354
aF0.68505129861817604
aF-0.12489476149379118
aF-0.63057066202657552
aF0.099817621582387342
aF-0.74091439900659117
aF-0.33294986995975973
aF0.46096333362411634
aF-1.00703763284155
asg9
I0
sg10
I0
sba(inode
Node
p67
(dp68
g7
(lp69
F-0.90578911924662242
aF-0.71739700828622432
aF-0.46146154391377858
aF0.91536925076181452
aF-0.17752120495559737
aF-0.067935966205160278
aF-0.56771812844673053
aF-1.1256304534405892
aF0.97639623737041592
aF0.2959097355838034
aF0.10210371581826193
aF1.010303178742572
aF0.56987180684944505
aF-0.82141062216170491
aF-0.25119583269234841
aF0.34331066416235478
asg9
I0
sg10
I0
sba(inode
Node
p70
(dp71
g7
(lp72
F-0.5392656876650922
aF-0.99888463831787178
aF0.13477801818988513
aF-0.19126773407413714
aF-0.048455662401974901
aF-0.13472571569758895
aF0.37232335616912854
aF0.29279222962786183
aF-0.013970271089596802
aF0.62637718191527847
aF-0.53674758069022066
aF-0.37620623366359646
aF0.22079680747512448
aF-0.95060702914121065
aF-0.2809206266218186
aF-0.50508579296441269
asg9
I0
sg10
I0
sba(inode
Node
p73
(dp74
g7
(lp75
F0.84068212538835274
aF-0.53151605861869455
aF-0.60321400012623716
aF-0.022907696252129087
aF-0.47623269126621043
aF-0.065917171722089579
aF-0.015292667787058107
aF0.17441281723163585
aF0.81457880556062456
aF-0.64003219707470005
aF-0.8337196519243375
aF-0.43064350741025126
aF-0.83482024462742876
aF1.2096572683072691
aF0.75413958882934873
aF0.51544428618674931
asg9
I0
sg10
I0
sba(inode
Node
p76
(dp77
g7
(lp78
F-0.77258327285324557
aF0.77110662547398956
aF1.0314319253965714
aF-0.15643139171116044
aF1.1214198721808049
aF0.54369975619000277
aF-0.58861426980881248
aF-0.26995068131263611
aF0.086849984906056776
aF-0.0047167484589056728
aF-0.31874587935363191
aF-0.63877343332933401
aF-0.34592746920742362
aF0.46433151095782071
aF0.67361736594092136
aF0.76621107856935744
asg9
I0
sg10
I0
sba(inode
Node
p79
(dp80
g7
(lp81
F-0.50810232730623539
aF-0.31135341586519261
aF-0.63433248074923576
aF-0.77185418838982223
aF0.51078220491207371
aF0.6845003369323287
aF0.78976502015383254
aF-0.21353908369643237
aF1.0128277194276727
aF0.088463554021568622
aF0.88932181223298734
aF0.083392262732465514
aF0.39844658607508043
aF0.098740135573999882
aF0.063270117026503023
aF0.42816965962920894
asg9
I0
sg10
I0
sba(inode
Node
p82
(dp83
g7
(lp84
F-0.43218838805382426
aF0.51805340575540548
aF0.26350168791990319
aF1.050461815970638
aF-0.94158658442420362
aF-0.62612863651336892
aF-0.94258526459331027
aF-0.98876382913487848
aF-0.46661985938714068
aF0.54051434647547447
aF-0.86126136062564129
aF-0.28849765268777655
aF0.39917427581680082
aF0.43846481535552329
aF0.28802065187129838
aF0.55797762122364292
asg9
I0
sg10
I0
sba(inode
Node
p85
(dp86
g7
(lp87
F-1.2566718576517451
aF0.66040545129201944
aF0.52041857517053081
aF-0.80205422516496827
aF-0.73930548376068073
aF0.44787972665387304
aF-0.073180579411392305
aF0.789644711906059
aF0.02205564041738891
aF0.047603318227990174
aF0.73356670342000463
aF-0.017307986151898665
aF-0.33595756111972697
aF0.29979167917350258
aF-0.392992997167874
aF-0.2421419273128714
asg9
I0
sg10
I0
sba(inode
Node
p88
(dp89
g7
(lp90
F0.36411390996652382
aF-0.38841293434808505
aF0.04030677505330036
aF-0.63132361160962769
aF-0.21901400257790857
aF1.0571457344707402
aF-0.59719606612035303
aF-0.063123282653388693
aF-0.3711718299881967
aF0.97485710702690964
aF-0.0089134050803339297
aF-0.35466528556645727
aF-0.030235276499494836
aF0.14186276485656985
aF-0.16019137844864526
aF1.0863025814957474
asg9
I0
sg10
I0
sba(inode
Node
p91
(dp92
g7
(lp93
F-1
aF-1
aF-0.40000000000000002
aF-1
aF-0.5
aF-0.10000000000000001
aF0.80000000000000004
aF-0.40000000000000002
aF-0.40000000000000002
aF-0.5
aF-0.69999999999999996
aF-0.90000000000000002
aF-0.40000000000000002
aF1
aF-0.90000000000000002
aF0.10000000000000001
asg9
I0
sg10
I0
sba(inode
Node
p94
(dp95
g7
(lp96
F-0.30501199820517938
aF0.86372595334336744
aF-0.32261464756766639
aF-0.10216342501591137
aF-0.70229952020509501
aF-0.80292475335868996
aF-0.10952630854887269
aF-0.30325312387323833
aF0.49030978580434126
aF-1.0037912658933856
aF-0.31855817972035388
aF-0.026514526421130568
aF-0.92546117891379998
aF-0.51710904391219648
aF0.56647553963221298
aF-0.0086080324567682619
asg9
I0
sg10
I0
sba(inode
Node
p97
(dp98
g7
(lp99
F-1.0617392047565666
aF0.29646602578679038
aF0.66771228004341154
aF0.046322020742194693
aF0.79897244537589462
aF-0.97391198206284468
aF-0.21969614559491776
aF-0.16694925511629027
aF-0.44325220582835673
aF-0.063179547260047222
aF0.81258352973845704
aF0.63994109820564382
aF-0.8889843375423867
aF-0.23469681022354283
aF-0.097982399017078115
aF-0.78139380899503241
asg9
I0
sg10
I0
sba(inode
Node
p100
(dp101
g7
(lp102
F-0.29072209857515807
aF0.90261685910879819
aF-0.092430742843069444
aF0.20237899455229699
aF0.0049958593761146699
aF0.40570935924304941
aF0.40440103664570914
aF1.0053525089993964
aF-0.79203061640003625
aF1.0017842001635651
aF0.10344961794708384
aF-0.99203058283120937
aF0.803092660061409
aF0.10261681063352288
aF0.20559054443537142
aF0.10130866298331904
asg9
I0
sg10
I0
sba(inode
Node
p103
(dp104
g7
(lp105
F0.2931068478404244
aF-0.18972398979853147
aF0.14715396405807596
aF-0.095008173444797561
aF-0.041892781112570977
aF-0.5542864991882116
aF-0.054898396983506743
aF0.6353844700951734
aF0.7368657418630904
aF0.56890747114192086
aF0.39393959418079966
aF0.25636726512356778
aF0.65616006046194397
aF0.8128392005529379
aF-0.78385019091687747
aF-0.27031754923060475
asg9
I0
sg10
I0
sba(inode
Node
p106
(dp107
g7
(lp108
F0.51774499840837596
aF-0.73931126288884508
aF-0.71622763916485244
aF-0.29066894728891113
aF0.71104541674056876
aF0.93433439966801468
aF0.66347139854428216
aF-0.56109114464569054
aF0.46603878824493739
aF-0.0056700338354527223
aF-0.78975406317302188
aF0.55994329548959987
aF-0.31906574504804153
aF0.2895762481544929
aF0.16479518595174364
aF0.99287721457061906
asg9
I0
sg10
I0
sba(inode
Node
p109
(dp110
g7
(lp111
F0.42616566451411497
aF-0.13604508047506375
aF0.4522597616809933
aF0.0029038904488153344
aF1.0165971202050383
aF-0.37828854080897351
aF0.02666333558350948
aF0.22088749447007325
aF0.52727651300161638
aF0.32453980774169727
aF0.24500172634529752
aF0.35323891871595176
aF-0.63176862152093616
aF-0.1427488617371484
aF-0.83821181107252252
aF1.0242161276219885
asg9
I0
sg10
I0
sba(inode
Node
p112
(dp113
g7
(lp114
F0.75897042329261533
aF-0.7642455484351881
aF0.34579310035180555
aF0.44729501131805055
aF-0.783975628517389
aF-0.35183983402913055
aF0.24536202691439454
aF0.9410261654511205
aF1.0786746439367341
aF-0.29845178462529709
aF-0.54803427259479731
aF0.38478701998814074
aF0.16182876144458924
aF-0.73992218186043157
aF0.25317741430935725
aF0.63721033452861742
asg9
I0
sg10
I0
sba(inode
Node
p115
(dp116
g7
(lp117
F0.9034082774085862
aF-0.48301868731038416
aF1.0048130236346922
aF0.90004521776109558
aF0.50053566319053522
aF0.10254661339890554
aF0.1005321788849821
aF-0.59990126038524649
aF0.3058798409457571
aF-0.099435823305421361
aF-0.38557990506189566
aF0.71043652905275512
aF0.40913279396547453
aF0.20216588177893283
aF-0.48404470415503609
aF0.20328319889202254
asg9
I0
sg10
I0
sba(inode
Node
p118
(dp119
g7
(lp120
F0.88515640779057259
aF0.81786313156693413
aF0.75108210204687909
aF1.0335593380984192
aF-0.93210923862383133
aF-0.53961117892501298
aF-0.075219469955499121
aF0.45035384976729642
aF-0.81582007183823324
aF-0.72520457829510476
aF-0.9996428357615329
aF0.95869617518902772
aF0.38482919482482203
aF-1.0594106722368071
aF-0.33698440192194096
aF0.2728462231170663
asg9
I0
sg10
I0
sba(inode
Node
p121
(dp122
g7
(lp123
F-0.39999013745644968
aF-0.29999395521584404
aF0.20000890810232194
aF0.60000174980631527
aF0.20000493127205887
aF0.80000747644401027
aF-0.19998791043147077
aF1.0000050903452664
aF-0.39999809111918755
aF-0.59998409267295083
aF0.40000556756455102
aF0.20000127258614717
aF0.70000000000026141
aF0.70000031814689401
aF0.90000000000007996
aF0.70000445405156164
asg9
I0
sg10
I0
sba(inode
Node
p124
(dp125
g7
(lp126
F-0.51177498111083619
aF0.60904864962257088
aF0.91076718396137313
aF0.78108772144936234
aF-0.70004916335405343
aF0.045870839115504776
aF0.10366622649533143
aF-0.2732977602255442
aF0.13781506408738725
aF0.31744747299438053
aF-1.0824284571480973
aF0.76334711353866402
aF-0.19435782713323976
aF0.010809154186398025
aF-0.84618772994166425
aF1.2549478265303986
asg9
I0
sg10
I0
sba(inode
Node
p127
(dp128
g7
(lp129
F-0.037123749940576954
aF0.21979602791031153
aF0.40423030732506371
aF-0.73193462742693716
aF-0.63131724950619172
aF-0.70908927882200701
aF0.53803121146723354
aF0.18031010179979962
aF0.021027852487585458
aF0.69736895897022511
aF0.9273836344497971
aF0.72410693906449275
aF-0.28911559878165521
aF0.44530019180124664
aF-0.3481830937892611
aF-0.0097663893525091819
asg9
I0
sg10
I0
sba(inode
Node
p130
(dp131
g7
(lp132
F-1
aF-0.90000000000000002
aF-0.10000000000000001
aF-0.5
aF0.29999999999999999
aF-0.20000000000000001
aF0.29999999999999999
aF0.59999999999999998
aF-0.69999999999999996
aF0.5
aF-0.80000000000000004
aF-0.59999999999999998
aF-0.10000000000000001
aF-0.5
aF-0.59999999999999998
aF-0.69999999999999996
asg9
I0
sg10
I0
sba(inode
Node
p133
(dp134
g7
(lp135
F0.39880894038666059
aF-0.90585134051330651
aF-0.20365958485468735
aF-0.60033293526885267
aF0.79985877611677003
aF0.79875190672114804
aF0.2965687902127504
aF-0.1015099540970817
aF-0.40312576962265889
aF0.19868956609563831
aF0.095632105471567433
aF0.4964277418719803
aF-0.30383963998568814
aF-0.004532340662996381
aF0.996948415765884
aF0.39804676519863191
asg9
I0
sg10
I0
sba(inode
Node
p136
(dp137
g7
(lp138
F-0.69999999999999996
aF-0.29999999999999999
aF-0.59999999999999998
aF-0.40000000000000002
aF-0.80000000000000004
aF0
aF-0.80000000000000004
aF-0.29999999999999999
aF-0.40000000000000002
aF-0.59999999999999998
aF-0.90000000000000002
aF-0.40000000000000002
aF-0.10000000000000001
aF0.20000000000000001
aF-0.20000000000000001
aF-0.80000000000000004
asg9
I0
sg10
I0
sba(inode
Node
p139
(dp140
g7
(lp141
F0.2999583385102057
aF-0.49999029332887512
aF0.19999716259724218
aF-0.49997753007760509
aF-1.000035345701644
aF0.19997621649584696
aF-1.1787032567017966e-05
aF-4.3030815715269724e-05
aF0.59995460275679502
aF-0.6999972746106583
aF-1.2472117924902985e-05
aF-0.90001479915720295
aF0.79997500578264569
aF-0.40002983999230524
aF-0.3000639876519906
aF-0.80001012757699119
asg9
I0
sg10
I0
sba(inode
Node
p142
(dp143
g7
(lp144
F0.90742150439957348
aF-0.75462763735853211
aF0.12844726703891157
aF0.30073581737103033
aF-0.29702099280088051
aF-0.59533621870683207
aF1.0111504932384863
aF0.10636375281173066
aF0.80818161806115829
aF0.31292619526699877
aF-0.37184275441537129
aF0.42768838190144187
aF0.63213964936631106
aF-0.086055271542982301
aF-0.35835646295119566
aF0.50621448837790639
asg9
I0
sg10
I0
sba(inode
Node
p145
(dp146
g7
(lp147
F0.10004778639144393
aF0.60028444809176651
aF0.60007449442974614
aF-0.79995162245186413
aF0.70000252330013335
aF-0.39999847078813311
aF0.60000359624042099
aF0.80000129055202651
aF0.10000702208041033
aF0.50004310899215598
aF-0.69966918255629229
aF-0.29982186923859383
aF0.80018139568091362
aF1.0000389404264471
aF-0.39969816824466253
aF0.00011813229335599367
asg9
I0
sg10
I0
sba(inode
Node
p148
(dp149
g7
(lp150
F0.71236053965895352
aF0.62675025146951113
aF-0.38376328864100379
aF-0.71298770766901665
aF0.6028298305855494
aF-0.30940353998297399
aF-0.082089211727352188
aF-0.85124511523200019
aF-0.23263737299406653
aF-0.67178791402862736
aF0.48335874562669806
aF-0.48677572259040663
aF-0.39306620620238186
aF-0.92888382103898381
aF0.88733272311636857
aF-0.3558065414244157
asg9
I0
sg10
I0
sba(inode
Node
p151
(dp152
g7
(lp153
F0.3999999841963448
aF0.99999999721112043
aF0.19999998140746481
aF-0.80000001859253644
aF-0.10000001171329737
aF0.19999999442223951
aF0.90000000000000002
aF-0.5000000026029543
aF0.99999999888444746
aF0.19999998884447875
aF0.099999994236314005
aF-0.20000000427628298
aF0.29999999665334359
aF0.49999999739704498
aF-0.80000000669331284
aF0.90000000000000002
asg9
I0
sg10
I0
sba(inode
Node
p154
(dp155
g7
(lp156
F-0.92482623304791733
aF0.41025457257693754
aF-0.22905837676287799
aF0.80452019987148593
aF-0.94127687012701744
aF0.72171890591985344
aF0.65234543518938459
aF0.66826817626374624
aF-0.35277778160723067
aF0.51543759807475675
aF0.14681161156516251
aF0.9569088199196496
aF0.22242122206932227
aF0.56847543972488912
aF0.26237980708077435
aF0.66008241664666589
asg9
I0
sg10
I0
sba(inode
Node
p157
(dp158
g7
(lp159
F-0.92627147367584095
aF1.005832532013105
aF0.65188088849510029
aF0.64616832860973139
aF0.45072381676809159
aF0.94143935441900384
aF-0.96310012707761861
aF0.84832997317501169
aF0.20032144389237647
aF0.035669803970154117
aF0.51868950638698319
aF0.74657141567059893
aF-0.1329369173515654
aF-0.85789671727441352
aF0.72587250355751121
aF0.56199255694168893
asg9
I0
sg10
I0
sba(inode
Node
p160
(dp161
g7
(lp162
F0.48613349642135961
aF-0.78168019058130989
aF1.0073504361929206
aF-0.87514247795788258
aF0.67208192149620416
aF0.82361769521109318
aF-0.20352252182831401
aF0.57602696798269593
aF-0.28293465759247605
aF0.40774290040871186
aF-0.2693018092229022
aF-0.59104986252115199
aF-0.13259461596860225
aF0.39284905699097528
aF0.87806141932557302
aF-0.80177665308812307
asg9
I0
sg10
I0
sba(inode
Node
p163
(dp164
g7
(lp165
F-0.57234237633377105
aF-0.4592792276373846
aF-0.046738205652273927
aF0.79574740673892796
aF-0.29124713768491073
aF-0.12764774376948901
aF0.54135975825006633
aF-0.034866536733982489
aF-0.79434293344693652
aF0.25170240396285126
aF-0.33764707202097705
aF-0.70467796956149831
aF-0.249687421267794
aF-0.012242026235151846
aF-0.86729646944169325
aF-0.0021619002288868778
asg9
I0
sg10
I0
sba(inode
Node
p166
(dp167
g7
(lp168
F-0.53529410169659941
aF0.77783310952767371
aF-0.30730506930981777
aF-0.12160742684634508
aF0.92110748822243127
aF0.39338723022367039
aF0.09406140247050182
aF0.18003848668636926
aF-0.60919669458534365
aF0.21011871202775767
aF0.25343009024775814
aF0.56967746603669978
aF0.32079036030198305
aF0.18344898379807456
aF-0.34478339951264131
aF-0.041429546925856257
asg9
I0
sg10
I0
sba(inode
Node
p169
(dp170
g7
(lp171
F0.45304600000932832
aF1.1830751874404968
aF0.69279252789602774
aF0.038994411274255965
aF-0.97199077532050815
aF-0.53041498501367246
aF0.60597869635740154
aF0.19026224537939146
aF-0.28429120825119492
aF0.74690194499799878
aF0.51294534337367259
aF-0.73357729578827668
aF0.49839360660322329
aF0.27740028261155308
aF-0.63723212119237893
aF-0.94772084393728073
asg9
I0
sg10
I0
sba(inode
Node
p172
(dp173
g7
(lp174
F1.1308280140817104
aF0.40385459263350898
aF0.36359455021396847
aF-0.85499182391123729
aF-0.35857087120752956
aF0.22030437739751071
aF0.54532261058472031
aF0.074202077838366881
aF0.031080874751856735
aF0.82222443513236676
aF0.058333387723801221
aF0.43160118963203431
aF-0.86153709689912583
aF-0.15918560950429944
aF-1.0480689485189552
aF-0.072618191912180788
asg9
I0
sg10
I0
sba(inode
Node
p175
(dp176
g7
(lp177
F-0.91665603431990283
aF-0.65395011678227477
aF0.020708004136689228
aF-0.77763022787519887
aF0.046267206432266436
aF0.5480815714210433
aF-0.0047455396501041329
aF0.24734879970143822
aF-0.18574311663407683
aF0.63473891073926303
aF0.62961594745903948
aF0.50833111209841242
aF-0.99757443621943087
aF-0.95944913219188466
aF0.68207619188942015
aF0.3142407955567279
asg9
I0
sg10
I0
sba(inode
Node
p178
(dp179
g7
(lp180
F0.87710836452210261
aF-0.11885949344128779
aF-0.98100727622305861
aF-0.76697550209410315
aF-0.98223888284845351
aF-0.96681540755960571
aF-0.86791144868113224
aF-0.7921365278756739
aF0.31865720663761921
aF0.18209305543158619
aF-0.31076273192426973
aF-0.68924801190073903
aF0.62950327224519165
aF0.39551350605358376
aF0.73543503855339443
aF0.41521618483244638
asg9
I0
sg10
I0
sba(inode
Node
p181
(dp182
g7
(lp183
F0
aF0.59999999999999998
aF-1
aF0.59999999999999998
aF0.69999999999999996
aF0
aF-0.40000000000000002
aF1
aF0.29999999999999999
aF0.69999999999999996
aF0.10000000000000001
aF-0.20000000000000001
aF0.80000000000000004
aF0
aF1
aF1
asg9
I0
sg10
I0
sba(inode
Node
p184
(dp185
g7
(lp186
F0.14621094406043234
aF-0.55339666844923707
aF1.0840055009068885
aF-0.7930921761319647
aF-0.47738908845494887
aF0.42813905481565884
aF0.98519799576401046
aF0.50705565799364938
aF0.025229467693165093
aF-0.20416099577699215
aF0.55657786248250707
aF0.45934309768666198
aF0.31198669738640045
aF-0.48592042265734581
aF0.94976828280357273
aF-0.22191183139243853
asg9
I0
sg10
I0
sba(inode
Node
p187
(dp188
g7
(lp189
F0.44874321550532897
aF0.14943818574886611
aF-0.90008276534333787
aF-0.22298953879918051
aF0.25392222504520084
aF-0.46191487470864218
aF0.061930375210580216
aF0.1266363670344636
aF0.55146486315625465
aF-0.74138227971897741
aF-0.20036267677332195
aF0.49416523166095688
aF-0.0053632818207989047
aF0.077164534510545529
aF1.0439859762296069
aF1.0241478479436956
asg9
I0
sg10
I0
sba(inode
Node
p190
(dp191
g7
(lp192
F0.2181934153286901
aF0.11381090441846511
aF0.69091541500369402
aF-0.063439150467337613
aF-0.72873103371962467
aF0.50175029999374388
aF-0.14144013475900832
aF-1.0855452004463657
aF0.31888930686646211
aF-0.58027262461259521
aF-0.52396151651193545
aF-0.58292547139764683
aF-0.092061006910126905
aF-0.051012586893843609
aF-0.57431316314650149
aF-0.15849918792559939
asg9
I0
sg10
I0
sba(inode
Node
p193
(dp194
g7
(lp195
F-0.83453873012801527
aF-0.99217874649958704
aF0.2896760524100051
aF0.55118294684020408
aF-0.61493948376928897
aF0.084096057986707384
aF-0.12590782981559745
aF-0.52553711102800105
aF0.27192366141751984
aF-0.90784207762985292
aF0.50777718921901271
aF-0.79702123626957544
aF-0.81524502385327524
aF0.47259869477227329
aF-0.50519254882626263
aF0.78219817147989423
asg9
I0
sg10
I0
sba(inode
Node
p196
(dp197
g7
(lp198
F-0.83941996752328563
aF0.53194536616634669
aF-0.28572150228234555
aF-0.68710028204437434
aF-0.96037737060391726
aF-0.44871212468685423
aF-0.95783081615488552
aF-0.066642627281498099
aF0.26775853042153602
aF-0.30340147922189742
aF0.090885895048203547
aF0.36018775442212575
aF0.40652895360320862
aF0.93279946066666231
aF-1.0057144626621275
aF0.94940559876896469
asg9
I0
sg10
I0
sba(inode
Node
p199
(dp200
g7
(lp201
F0.59664137718552268
aF-1.2767807504192037
aF0.59844077233213666
aF-0.27236421944358791
aF-0.11022195051098994
aF-0.91231146479363634
aF-1.0157764072170554
aF-0.48585756638223015
aF0.59431470742067105
aF0.55415032426272237
aF1.17352577019104
aF-0.21524713899244555
aF-0.53253728779971399
aF0.69397791615731719
aF-0.11003208862214364
aF0.63469136650993441
asg9
I0
sg10
I0
sba(inode
Node
p202
(dp203
g7
(lp204
F-0.20267654754378744
aF0.40588130112604881
aF-0.005392205256360973
aF0.60000466833473287
aF0.80237726008709176
aF0.40282687949227669
aF0.19696928070639849
aF0.30398421373985274
aF0.20455351055721366
aF0.39521229707102534
aF0.50198188038591907
aF0.10207338136467856
aF-0.78944430939182131
aF0.60816497247999379
aF-0.99670902506915682
aF0.80116902727700723
asg9
I0
sg10
I0
sba(inode
Node
p205
(dp206
g7
(lp207
F0.99757528225178704
aF-0.914048381580986
aF0.5128019302407395
aF0.18601699857157344
aF-0.78318190888208317
aF-0.20916930587424432
aF-0.62229361347583534
aF-0.15743330393830332
aF0.44524572863016276
aF-0.5305543289984529
aF0.63685909564630105
aF-0.67918564911909429
aF0.3541622828709981
aF0.26148886074781297
aF-0.86101573693275479
aF0.3765032811855169
asg9
I0
sg10
I0
sba(inode
Node
p208
(dp209
g7
(lp210
F-0.88118271386229741
aF-0.82999458475987709
aF-0.36237692761294849
aF0.75171860695126813
aF0.64051839507393293
aF-1.0393750777295994
aF-0.52421958253327461
aF0.054764516385144763
aF0.75107116255133211
aF0.18733464078095127
aF0.81145589368732673
aF0.73472955619780345
aF-0.93407651761899335
aF-0.83764789270180284
aF-0.34394316628585603
aF-0.98135956455018791
asg9
I0
sg10
I0
sba(inode
Node
p211
(dp212
g7
(lp213
F-0.50079466766369307
aF-0.35648601364685423
aF-0.77552477140776588
aF0.85771642871554188
aF-0.57849261559811771
aF0.073781671916023722
aF0.6071998702329352
aF0.33304626624228478
aF-0.57148891942697444
aF0.89248080473166314
aF0.74831496060807268
aF-0.82995633877538499
aF-0.7948621095907682
aF-1.0615003602109083
aF-0.1318488293018806
aF-0.031364861707083927
asg9
I0
sg10
I0
sba(inode
Node
p214
(dp215
g7
(lp216
F-1
aF-0.90000000000000002
aF-0.80000000000000004
aF-0.40000000000000002
aF0.59999999999999998
aF-0.59999999999999998
aF0.29999999999999999
aF-0.90000000000000002
aF0.80000000000000004
aF-0.20000000000000001
aF0.10000000000000001
aF-1
aF-0.90000000000000002
aF-0.90000000000000002
aF-3.8306561738347178e-37
aF0.10000000000000001
asg9
I0
sg10
I0
sba(inode
Node
p217
(dp218
g7
(lp219
F-0.92200597082706848
aF0.082508116495733433
aF-0.95767415857030447
aF-0.62974356629355421
aF0.97536275263869598
aF0.49086647601294525
aF0.62757643406528174
aF0.72049140197939798
aF-0.41774657890069899
aF0.85269672048324852
aF-0.69574868113702459
aF-0.75824584961583374
aF0.48785878868444665
aF-0.013022406376998807
aF0.48773940780151781
aF0.86385756236144284
asg9
I0
sg10
I0
sba(inode
Node
p220
(dp221
g7
(lp222
F0.7999926385027647
aF0.59999870091225216
aF-0.10000866058498339
aF-0.20000866058498337
aF-1.0000054561685383
aF0.89999740182450627
aF1
aF0.39999878751810236
aF0.19999948036490092
aF-0.60000519635098992
aF0.59999731521865451
aF0.39999800806545388
aF0.39999844109470312
aF0.59999878751810354
aF-0.40000311781059439
aF1
asg9
I0
sg10
I0
sba(inode
Node
p223
(dp224
g7
(lp225
F-0.94939303682858756
aF-1.3668594972063872
aF0.038158560336083065
aF0.41359978869568448
aF-0.035742514260721919
aF0.042622128902436607
aF0.73904323304654673
aF0.89966637263242966
aF0.79796732193977482
aF-0.119892939180191
aF0.1981178216022039
aF-0.39148947750510477
aF-0.99009415421140323
aF0.67885454881734086
aF0.2963800709258575
aF-0.84246873662303456
asg9
I0
sg10
I0
sba(inode
Node
p226
(dp227
g7
(lp228
F0.69975812608088994
aF-1.0946712329506669
aF0.17331030516114068
aF-0.71331744599381119
aF-0.52220201783690023
aF-0.1498499170630333
aF-0.076495668326742872
aF0.65974667419070754
aF-0.55395271075693575
aF1.2207008510897737
aF0.13106467587186887
aF0.089751405267044143
aF-0.58633700294820368
aF-0.80359882830863327
aF0.10911227782639003
aF-0.50748839438341187
asg9
I0
sg10
I0
sba(inode
Node
p229
(dp230
g7
(lp231
F-0.11143679917706682
aF-0.29091419991571343
aF0.12360894793950725
aF0.31866232678698342
aF-0.21412946194043952
aF0.49050063996625559
aF-0.85789453532979287
aF-0.63171840432392756
aF-0.24916574586783927
aF0.60488010837714767
aF-0.54562798698128001
aF1.083221352713877
aF-0.55270844098179084
aF1.0089025921175951
aF0.34871435630254133
aF0.94333545113246486
asg9
I0
sg10
I0
sba(inode
Node
p232
(dp233
g7
(lp234
F0.6572557174636855
aF0.61918569584774241
aF-0.099165728150586843
aF0.46255298918515952
aF0.32139566260672914
aF-0.3330919921430418
aF-1.3344861451472301
aF-0.0053372070703848265
aF-0.82848308658556991
aF-0.00040234612267216099
aF-0.12544815401556217
aF0.44621122286600934
aF0.77023144888028749
aF-0.83834438002571787
aF-0.68699776884380193
aF-0.52441675029605439
asg9
I0
sg10
I0
sba(inode
Node
p235
(dp236
g7
(lp237
F0.40184432212240562
aF-0.31445636059753573
aF0.75279821219096954
aF-0.78244194436937664
aF-0.22776475931091628
aF-0.88091050514000546
aF-0.31442584303229087
aF-0.56416079467872404
aF0.17487828895353652
aF0.37064439292957407
aF-0.74067833304542119
aF-0.50641288522807204
aF-0.62079684330102547
aF0.10199014114457595
aF0.34842882177154849
aF-0.55190040565918286
asg9
I0
sg10
I0
sba(inode
Node
p238
(dp239
g7
(lp240
F0.8111961306868043
aF-0.84533211687037724
aF0.060090938629564716
aF-0.39034599171053674
aF0.52247412903554513
aF-0.52738590115193951
aF0.22804286609048693
aF0.29228682129647743
aF-0.49106748251047561
aF-0.32483199902458348
aF0.33695979304148971
aF-0.92004506787531559
aF-0.72413605691635452
aF-1.0720125267320464
aF-0.39962876757544086
aF-0.79486144711109707
asg9
I0
sg10
I0
sba(inode
Node
p241
(dp242
g7
(lp243
F-0.84594249952345479
aF0.14937693742585625
aF-0.2208845252360975
aF0.51039236140550848
aF0.22407922643988493
aF-0.52097798541212093
aF-0.070905047464736332
aF0.75993997019205328
aF0.95306418604923282
aF-0.41922998048227117
aF-0.4583940218498847
aF0.96959668381421571
aF1.0991045916938795
aF0.45106428839459839
aF0.94291207474632721
aF0.46689630908724555
asg9
I0
sg10
I0
sba(inode
Node
p244
(dp245
g7
(lp246
F0.48518044467152144
aF0.551678091778394
aF0.85849682055183507
aF-0.65337598748409265
aF0.37687947981285536
aF0.58257135496723189
aF-0.76571873288234971
aF-0.56792857159395815
aF0.52101568094607498
aF-0.14683182736676453
aF-0.63564535003320244
aF0.94840109850503496
aF0.10902974417966925
aF0.20933297074750223
aF-0.51194703056115809
aF0.77954891149910976
asg9
I0
sg10
I0
sba(inode
Node
p247
(dp248
g7
(lp249
F-1.5897904562447192
aF1.1729621367060203
aF0.31443380903598317
aF-0.14950813580122932
aF-0.075370643704973581
aF0.33752274164341411
aF-0.62628564836564038
aF-0.2757532677970676
aF0.75958968603125643
aF0.24416840000547893
aF0.29018198294998121
aF0.34619871896546739
aF0.22535111247143003
aF-0.42742526785580254
aF-0.10060022914413842
aF-0.13291003079713415
asg9
I0
sg10
I0
sba(inode
Node
p250
(dp251
g7
(lp252
F0.59323568769292889
aF0.56545857087486973
aF-0.04097217276139279
aF-0.0046639021726128686
aF0.53403620318649203
aF-0.11717714968231335
aF0.078804419988340368
aF-0.58263470045858368
aF0.27221865184142929
aF-0.46868198410651091
aF-0.53623405307704686
aF-0.21423049041912187
aF-0.065165444020821445
aF1.0312750607794448
aF0.39817351218600028
aF-0.50973208639936252
asg9
I0
sg10
I0
sba(inode
Node
p253
(dp254
g7
(lp255
F0.42215337763364102
aF-0.95135883948905153
aF0.98660376270374994
aF-1.0769540133656101
aF0.45239685801044793
aF-0.28660214578623699
aF0.036716523297156842
aF-0.34059549900245323
aF0.084299688337115958
aF-1.0099583723854335
aF0.59951749097491192
aF-0.68240855131016065
aF0.46820479607476956
aF-0.65942527096989223
aF-0.11024539869787717
aF-0.67485135447698896
asg9
I0
sg10
I0
sba(inode
Node
p256
(dp257
g7
(lp258
F-1.0723055164716464
aF1.0012829272776991
aF-0.49966649157292514
aF0.50101827131456544
aF0.036073049431344741
aF1.1032886725417572
aF-0.11495716818798164
aF-0.50660097604593934
aF0.15248686581321447
aF-0.46582618090048339
aF0.088032947024800731
aF0.75739446613109707
aF0.59119104567821135
aF0.45772036558842749
aF-0.29112516275971334
aF-0.50873627558024537
asg9
I0
sg10
I0
sba(inode
Node
p259
(dp260
g7
(lp261
F0.21190141576182264
aF-0.78889118096179733
aF0.62117253236336378
aF0.71467739814491893
aF0.66517223159228744
aF-0.87757515451964541
aF-0.74749683978735748
aF0.71192698000107957
aF0.27256694000775533
aF1.0385346041615515
aF-0.080322452429636898
aF-0.0086819260312041725
aF0.88917189554492049
aF-0.99338977837293063
aF-0.46533505417251753
aF-0.75086231253896862
asg9
I0
sg10
I0
sba(inode
Node
p262
(dp263
g7
(lp264
F0.80000000000000004
aF1
aF0.59999999999999998
aF0.80000000000000004
aF0.5
aF-0.80000000000000004
aF0.59999999999999998
aF0.5
aF-0.5
aF0.90000000000000002
aF0.59999999999999998
aF0.90000000000000002
aF-1
aF0.69999999999999996
aF1
aF-0.90000000000000002
asg9
I0
sg10
I0
sba(inode
Node
p265
(dp266
g7
(lp267
F0.36498720511911659
aF-0.21750072638332943
aF-0.50084730813965295
aF0.59301940584711499
aF0.27541458688350512
aF-0.014293034478905179
aF-0.71225578719530813
aF-0.81245114113629058
aF-0.70350497902294939
aF-0.92946271305776751
aF0.7681061332017185
aF-1.0052288667755802
aF-0.89996911218539277
aF0.29925839838184609
aF0.18552035472129874
aF0.054377134340444028
asg9
I0
sg10
I0
sba(inode
Node
p268
(dp269
g7
(lp270
F0.91347288258075687
aF-0.91756062686172324
aF0.2024421498292259
aF1.0010450026625228
aF-0.094080552840946755
aF0.004686493874220465
aF-0.10425905777606022
aF0.000401768977886957
aF-0.1016472437253081
aF-0.38763486488067961
aF-0.21900709210924588
aF0.8833633142574201
aF0.090698183626201342
aF0.19220950058469921
aF0.68964030837780921
aF0.79484609500335546
asg9
I0
sg10
I0
sba(inode
Node
p271
(dp272
g7
(lp273
F-0.99463977544389959
aF-0.92016581935959929
aF0.075755049552733489
aF0.63383463540470975
aF0.4319800330816852
aF-0.48965007509451591
aF0.91014651989914908
aF0.25785760145520797
aF0.46957102343270507
aF-0.042079957729650334
aF-0.42677984980249956
aF-0.32043820505310794
aF0.41278786510830351
aF-1.0727132549361131
aF0.30402114109785577
aF0.83128867681076513
asg9
I0
sg10
I0
sba(inode
Node
p274
(dp275
g7
(lp276
F-0.29778521644920947
aF0.2379573554346282
aF-0.28123826692890252
aF0.70581207155939441
aF-0.097739502911718998
aF0.94012855986022315
aF-0.20652519714900211
aF-0.14177240732289539
aF0.66779566369473564
aF-0.52898797319431856
aF-0.72383566086813256
aF4.4597061530579589e-05
aF-0.49296750265118094
aF-0.35977745981308973
aF-0.3919620942231038
aF0.55544830460963357
asg9
I0
sg10
I0
sba(inode
Node
p277
(dp278
g7
(lp279
F-0.99887733573297721
aF-0.513611462642522
aF-0.69943757195563938
aF-0.40000151324503613
aF0.099511830649830518
aF-0.70705089532335497
aF0.59401249757336616
aF0.99428546381238136
aF-0.80620264528098229
aF0.49732484338780675
aF-0.80528663840498615
aF0.29042363571501306
aF-0.50939478863024001
aF-0.29941589126564594
aF0.78099976218058831
aF-0.60766325035097413
asg9
I0
sg10
I0
sba(inode
Node
p280
(dp281
g7
(lp282
F0.3279525839303799
aF0.46704036549294015
aF-0.75928975688892708
aF0.25681700775685701
aF0.022147051555743126
aF-0.87783820887914554
aF0.57040689794047184
aF0.95350134164999178
aF-0.517713755009648
aF-0.50053786481354801
aF0.77280244604364834
aF0.30977845622676703
aF-0.43424355729588399
aF0.16135868893746488
aF-0.32352992287868221
aF-1.193076715907375
asg9
I0
sg10
I0
sba(inode
Node
p283
(dp284
g7
(lp285
F1.0302298724058785
aF0.69575321517475242
aF-0.055587965707724597
aF0.67152927567766973
aF-0.61472353904174004
aF-0.54159306809445062
aF0.12785881475523919
aF0.18072524759779565
aF-0.80731662947875271
aF0.62445932410926996
aF-0.08438668353696685
aF0.83032586088123383
aF0.75447700397975226
aF0.143048491966905
aF-0.20013817089903094
aF-0.24797196691522053
asg9
I0
sg10
I0
sba(inode
Node
p286
(dp287
g7
(lp288
F-0.45020396445908162
aF0.98669574501616497
aF0.67716665763568173
aF-0.17378617644086267
aF-0.20258785393173093
aF-0.67469962965430008
aF-0.023844723504374873
aF-0.12356506923467792
aF-0.37812954967816992
aF0.17133078324568951
aF0.0046809024264112811
aF-0.45826830383571449
aF0.5199084390954356
aF0.12106197676754338
aF-0.35628121863813583
aF-0.60208268628875261
asg9
I0
sg10
I0
sba(inode
Node
p289
(dp290
g7
(lp291
F-0.21820105865500428
aF-0.20845724830920187
aF-0.55272638871860857
aF0.67662390547135409
aF0.21049036441119889
aF-0.075442365884994839
aF0.63182825214013227
aF-0.45483027712810586
aF-0.56346429772733453
aF0.68997231768850453
aF0.13587802609338279
aF-0.4464803550919943
aF-0.064152517518377888
aF-0.97978993888529109
aF0.78515974517829323
aF-1.0153578024333225
asg9
I0
sg10
I0
sba(inode
Node
p292
(dp293
g7
(lp294
F1.2296315775753932
aF-1.1229509064108398
aF-0.28553090568403033
aF-0.72283281509440622
aF0.89102648451286526
aF0.65479065914753498
aF0.23756453667168584
aF-0.12581981487966543
aF-0.36652093059147917
aF0.20222299806994376
aF-0.25386690488747626
aF-0.82438202988950504
aF-0.51652643923280017
aF0.38512487971168063
aF-0.44373184152406964
aF0.60072058784691695
asg9
I0
sg10
I0
sba(inode
Node
p295
(dp296
g7
(lp297
F-0.64476692245929301
aF-1.0217592043916557
aF0.20381655390379144
aF0.16394891419803148
aF0.74527240541164941
aF0.37826585442944005
aF0.34407152842535937
aF0.50533592911588532
aF-0.91280858598545311
aF0.88015436924285662
aF0.078328123059442825
aF-0.79286035494921503
aF-0.71384966914142634
aF0.46030794444500928
aF-0.22814050756120891
aF-0.93185408164919514
asg9
I0
sg10
I0
sba(inode
Node
p298
(dp299
g7
(lp300
F0.2418346957517237
aF0.39997140138467135
aF-0.88732476807750882
aF0.54130012085440182
aF0.69620361474807779
aF-0.16619464965095831
aF-0.87064032400899038
aF-1.1618219368887832
aF-0.94027992133962002
aF0.62995813507863796
aF-0.71664831768000048
aF0.67751982933172872
aF0.8230555461858502
aF0.39931539971862351
aF-0.3560955893839759
aF-0.74829585042291757
asg9
I0
sg10
I0
sba(inode
Node
p301
(dp302
g7
(lp303
F0.86637032657047119
aF0.74804133491436597
aF0.79531802991887557
aF-0.2738128524424665
aF-0.76683113876781206
aF-1.0838278008434634
aF-0.73447878286907731
aF-0.46217081843956459
aF0.38926180256166359
aF-0.40976095000206497
aF-0.90765123891465815
aF0.30148426924548255
aF-0.32081654903136969
aF0.64191959771889207
aF0.013106466883982938
aF-0.2767909468725917
asg9
I0
sg10
I0
sba(inode
Node
p304
(dp305
g7
(lp306
F0.040410781068774819
aF-0.049663342225372255
aF0.37281867465021939
aF-0.3470541139299847
aF-0.15427632530037169
aF0.62339158362785174
aF-0.55489608573699334
aF-0.88546903827774692
aF-0.09256326886698335
aF-0.97910894995464881
aF-0.044900963525740883
aF-0.53971123386841868
aF0.51142237871765439
aF0.38217113758454491
aF0.3504398842778878
aF-0.55284154556132903
asg9
I0
sg10
I0
sba(inode
Node
p307
(dp308
g7
(lp309
F0.99107461046457446
aF0.04360756874266495
aF-0.67032373537110101
aF1.0102500349066286
aF0.22263380497752425
aF-0.91178062327011156
aF-0.66208427774331424
aF-0.77117489441791454
aF0.26279022956049242
aF-0.017933879307163936
aF-0.53632185351784645
aF-0.19754565826294956
aF0.062446244219098196
aF0.32484016317080705
aF-1.0549501098337581
aF0.37343636406355546
asg9
I0
sg10
I0
sba(inode
Node
p310
(dp311
g7
(lp312
F-0.5
aF-0.5
aF-0.5
aF0.20000000000000001
aF-0.80000000000000004
aF-0.69999999999999996
aF0.20000000000000001
aF-0.69999999999999996
aF0.90000000000000002
aF-2.4688221693833875e-33
aF-0.10000000000000001
aF-0.20000000000000001
aF0.10000000000000001
aF-0.40000000000000002
aF-1
aF0.10000000000000001
asg9
I0
sg10
I0
sbasb.